Archive member included to satisfy reference by file (symbol)

/home/wyh/freedomstudio/SiFive/riscv64-unknown-elf-gcc-8.3.0-2019.08.0/bin/../lib/gcc/riscv64-unknown-elf/8.3.0/../../../../riscv64-unknown-elf/lib/rv64imafdc/lp64d/libc_nano.a(lib_a-lldiv.o)
                              ../sdio/mmc.o (lldiv)
/home/wyh/freedomstudio/SiFive/riscv64-unknown-elf-gcc-8.3.0-2019.08.0/bin/../lib/gcc/riscv64-unknown-elf/8.3.0/../../../../riscv64-unknown-elf/lib/rv64imafdc/lp64d/libc_nano.a(lib_a-memcmp.o)
                              ../sdio/mmc.o (memcmp)

Allocating common symbols
Common symbol       size              file

vic_spi_slave       0x18              ../spi/cadence_qspi.o
spi_priv            0x48              ../spi/cadence_qspi.o
local_mmc0          0x168             ../sdio/sdio.o
cadence_spi4x_func  0x10              ../spi/cadence_qspi.o
local_host0         0x90              ../sdio/sdio.o
operations          0x8               ../spi/spi.o
cadence_plat        0x40              ../spi/cadence_qspi.o

Memory Configuration

Name             Origin             Length             Attributes
ram              0x0000000018080000 0x0000000000030000 xrw
*default*        0x0000000000000000 0xffffffffffffffff

Linker script and memory map

LOAD ../boot/start.o
LOAD ../boot/bootmain.o
LOAD ../boot/trap.o
LOAD ../uart/uart.o
LOAD ../uart/cmd.o
LOAD ../uart/xmodem.o
LOAD ../common/util.o
LOAD ../common/ctype.o
LOAD ../gpio/gpio.o
LOAD ../spi/spi.o
LOAD ../spi/spi_probe.o
LOAD ../spi/cadence_qspi.o
LOAD ../spi/spi_flash.o
LOAD ../spi/cadence_qspi_apb.o
LOAD ../timer/timer.o
LOAD ../sdio/bouncebuf.o
LOAD ../sdio/dw_mmc.o
LOAD ../sdio/mmc.o
LOAD ../sdio/mmc_write.o
LOAD ../sdio/sdio.o
LOAD ../gpt/gpt.o
LOAD ../ddrphy_cfg/regconfig.h.sim_PHY.o
LOAD ../ddrphy_cfg/regconfig.h.sim_PI.o
LOAD ../ddrphy_cfg/lpddr4_1600_cl28_bl16/regconfig_pi_start.o
LOAD ../ddrc_cfg/lpddr4_1066_cl20_bl16/orbit_boot_1066.o
LOAD /home/wyh/freedomstudio/SiFive/riscv64-unknown-elf-gcc-8.3.0-2019.08.0/bin/../lib/gcc/riscv64-unknown-elf/8.3.0/rv64imafdc/lp64d/libgcc.a
LOAD /home/wyh/freedomstudio/SiFive/riscv64-unknown-elf-gcc-8.3.0-2019.08.0/bin/../lib/gcc/riscv64-unknown-elf/8.3.0/../../../../riscv64-unknown-elf/lib/rv64imafdc/lp64d/libc_nano.a
LOAD /home/wyh/freedomstudio/SiFive/riscv64-unknown-elf-gcc-8.3.0-2019.08.0/bin/../lib/gcc/riscv64-unknown-elf/8.3.0/rv64imafdc/lp64d/libgcc.a
START GROUP
LOAD /home/wyh/freedomstudio/SiFive/riscv64-unknown-elf-gcc-8.3.0-2019.08.0/bin/../lib/gcc/riscv64-unknown-elf/8.3.0/rv64imafdc/lp64d/libgcc.a
LOAD /home/wyh/freedomstudio/SiFive/riscv64-unknown-elf-gcc-8.3.0-2019.08.0/bin/../lib/gcc/riscv64-unknown-elf/8.3.0/../../../../riscv64-unknown-elf/lib/rv64imafdc/lp64d/libc_nano.a
LOAD /home/wyh/freedomstudio/SiFive/riscv64-unknown-elf-gcc-8.3.0-2019.08.0/bin/../lib/gcc/riscv64-unknown-elf/8.3.0/../../../../riscv64-unknown-elf/lib/rv64imafdc/lp64d/libgloss_nano.a
END GROUP
                0x0000000000000800                __stack_size = DEFINED (__stack_size)?__stack_size:0x800

.init           0x0000000018080000       0xca
 *(SORT_NONE(.init))
 .init          0x0000000018080000       0xca ../boot/start.o
                0x0000000018080000                _start

.text           0x00000000180800ca    0x11fbe
                [!provide]                        PROVIDE (_ftext = .)
 *(.text.unlikely .text.unlikely.*)
 *(.text.startup .text.startup.*)
 *(.text .text.*)
 .text          0x00000000180800ca        0x0 ../boot/start.o
 .text          0x00000000180800ca      0x6dc ../boot/bootmain.o
                0x000000001808019a                start2run32
                0x00000000180801a6                updata_flash
                0x00000000180802b8                boot_from_chiplink
                0x0000000018080442                boot_from_uart
                0x0000000018080446                boot_from_sdio
                0x0000000018080472                boot_from_spi
                0x00000000180804a0                second_hart
                0x00000000180804ac                BootMain
 .text          0x00000000180807a6       0x36 ../boot/trap.o
                0x00000000180807a6                handle_trap
                0x00000000180807c8                trap_entry
 .text          0x00000000180807dc      0x8b0 ../uart/uart.o
                0x00000000180807dc                __serial_tstc
                0x00000000180807fc                serial_tstc
                0x00000000180807fe                uart_init
                0x0000000018080bee                _putc
                0x0000000018080c18                rlSendString
                0x0000000018080c4e                CtrlBreak
                0x0000000018080c7e                serial_getc
                0x0000000018080ca6                serial_gets
                0x0000000018080d74                _puts
                0x0000000018080d76                print_ubyte_hex
                0x0000000018080dba                serial_nowait_getc
                0x0000000018080de6                vnprintf
                0x0000000018081068                printk
 .text          0x000000001808108c      0xf10 ../uart/cmd.o
                0x000000001808108c                CmdHelpProc
                0x0000000018081114                StdInit
                0x0000000018081136                CmdInit
                0x0000000018081162                ReadString
                0x00000000180811f2                CmdString
                0x000000001808121a                piteCmdLine
                0x0000000018081262                CmdErrorProc
                0x00000000180812d2                U2Hex
                0x0000000018081332                A2Int
                0x000000001808143a                ShowHexChar
                0x0000000018081492                PrintIntHex
                0x00000000180814de                RelayProc
                0x0000000018081802                LoadProc
                0x00000000180818b2                Do32Proc
                0x0000000018081932                ShowByte
                0x00000000180819c4                ShowShort
                0x0000000018081a42                ShowLong
                0x0000000018081abe                ShowProc
                0x0000000018081ef2                sys_cmd_main_loop
                0x0000000018081f46                sys_cmd_proc
 .text          0x0000000018081f9c      0x212 ../uart/xmodem.o
                0x0000000018081f9c                uart_putchar
                0x0000000018081fa0                uart_getchar
                0x0000000018081fb2                uart_waitchar
                0x0000000018081fc4                calcrc
                0x000000001808200a                xmodem_recv_128
                0x00000000180820c0                xmodem_recv_file
 .text          0x00000000180821ae      0x13e ../common/util.o
                0x00000000180821ae                sys_memcpy
                0x00000000180821c6                sys_memcmp
                0x0000000018082202                _memcpy
                0x0000000018082224                sys_memcpy_32
                0x000000001808223a                sys_memset
                0x000000001808224a                sys_memset32
                0x000000001808225c                atoi
 .text          0x00000000180822ec        0x0 ../common/ctype.o
 .text          0x00000000180822ec       0xd2 ../gpio/gpio.o
                0x00000000180822ec                gpio_enable
                0x0000000018082302                gpio_get_val
                0x000000001808232e                get_boot_mode
                0x000000001808235c                gpio_init
 .text          0x00000000180823be       0x5c ../spi/spi.o
                0x00000000180823be                spi_register
                0x00000000180823ce                spi_unregister
                0x00000000180823de                spi_setup_slave
                0x00000000180823f8                spi_xfer
 .text          0x000000001808241a      0x166 ../spi/spi_probe.o
                0x000000001808241a                spi_flash_probe_nor
                0x000000001808252c                spi_flash_probe
 .text          0x0000000018082580      0x4cc ../spi/cadence_qspi.o
                0x00000000180825d4                cadence_spi4x_setup_slave
                0x0000000018082950                cadence_qspi_init
 .text          0x0000000018082a4c      0x7a8 ../spi/spi_flash.o
                0x0000000018082ab0                spi_flash_cmd
                0x0000000018082ace                spi_flash_cmd_read
                0x0000000018082ad6                spi_flash_cmd_write
                0x0000000018082adc                spi_flash_cmd_write_enable
                0x0000000018082afe                spi_flash_cmd_write_status_enable
                0x0000000018082b22                spi_flash_cmd_write_disable
                0x0000000018082b42                spi_flash_cmd_read_status
                0x0000000018082b86                spi_flash_cmd_poll_bit
                0x0000000018082bec                spi_flash_cmd_wait_ready
                0x0000000018082bf2                spi_flash_cmd_poll_enable
                0x0000000018082c4c                spi_flash_cmd_status_poll_enable
                0x0000000018082caa                spi_flash_cmd_wait_enable
                0x0000000018082cb0                spi_flash_write_status
                0x0000000018082d50                spi_flash_write_status_bit
                0x0000000018082dd8                spi_flash_protect
                0x0000000018082dfc                spi_flash_cmd_erase
                0x0000000018082f0c                spi_flash_erase_mode
                0x0000000018082f40                spi_flash_cmd_write_mode
                0x0000000018083100                spi_flash_read_common
                0x000000001808310a                spi_flash_cmd_read_fast
                0x000000001808314a                spi_flash_read_mode
 .text          0x00000000180831f4      0x812 ../spi/cadence_qspi_apb.o
                0x0000000018083270                cadence_qspi_apb_controller_enable
                0x000000001808327e                cadence_qspi_apb_controller_disable
                0x000000001808328a                cadence_qspi_apb_readdata_capture
                0x00000000180832c2                cadence_qspi_apb_config_baudrate_div
                0x0000000018083316                cadence_qspi_apb_set_clk_mode
                0x0000000018083342                cadence_qspi_apb_chipselect
                0x000000001808338c                cadence_qspi_apb_delay
                0x00000000180833b2                cadence_qspi_apb_controller_init
                0x0000000018083422                cadence_qspi_apb_command_read
                0x00000000180834ce                cadence_qspi_apb_command_write
                0x00000000180835d8                cadence_qspi_apb_indirect_read_setup
                0x0000000018083680                cadence_qspi_apb_indirect_read_execute
                0x00000000180837da                cadence_qspi_apb_indirect_write_setup
                0x000000001808386a                cadence_qspi_apb_indirect_write_execute
 .text          0x0000000018083a06      0x3ae ../timer/timer.o
                0x0000000018083a06                timer_driver_to_base
                0x0000000018083a0a                timer_int_enable
                0x0000000018083a20                timer_int_disable
                0x0000000018083a36                timer_disable
                0x0000000018083a4c                timer_is_timeout
                0x0000000018083a62                timer_set_mode
                0x0000000018083a76                timer_set_val
                0x0000000018083a8a                timer_set_reload_val
                0x0000000018083a9e                timer_set
                0x0000000018083bbc                timer_enable
                0x0000000018083bd2                timer_clr_int_status
                0x0000000018083bea                timer_get_val
                0x0000000018083c00                timer_stop
                0x0000000018083c1e                timer_start
                0x0000000018083c36                timer_exit
                0x0000000018083c3a                timer_init
                0x0000000018083ca6                get_ticks
                0x0000000018083d0e                get_timer
                0x0000000018083d30                usec_to_tick
                0x0000000018083d3c                udelay
                0x0000000018083d5c                mdelay
                0x0000000018083d86                sdelay
 .text          0x0000000018083db4       0x14 ../sdio/bouncebuf.o
                0x0000000018083db4                bounce_buffer_start
 .text          0x0000000018083dc8      0x722 ../sdio/dw_mmc.o
                0x0000000018084480                add_dwmci
 .text          0x00000000180844ea     0x14a2 ../sdio/mmc.o
                0x000000001808470e                mmc_send_cmd
                0x0000000018084718                mmc_send_status
                0x0000000018085286                mmc_set_blocklen
                0x0000000018085294                mmc_switch_part
                0x00000000180852ee                mmc_select_hwpart
                0x0000000018085336                mmc_hwpart_config
                0x000000001808563e                mmc_set_clock
                0x000000001808566c                mmc_create
                0x000000001808571c                mmc_start_init
                0x00000000180858d8                mmc_init
                0x0000000018085986                mmc_set_dsr
 .text          0x000000001808598c      0x25c ../sdio/mmc_write.o
                0x000000001808598c                mmc_berase
                0x0000000018085aca                mmc_bwrite
 .text          0x0000000018085be8      0x34e ../sdio/sdio.o
                0x0000000018085c2e                boot_sdio_init
                0x0000000018085e6e                boot_load_gpt_partition
 .text          0x0000000018085f36       0x58 ../gpt/gpt.o
                0x0000000018085f36                gpt_find_partition_by_guid
 .text          0x0000000018085f8e     0x8ce8 ../ddrphy_cfg/regconfig.h.sim_PHY.o
                0x0000000018085f8e                regconfig_h_sim_phy
 .text          0x000000001808ec76     0x19ee ../ddrphy_cfg/regconfig.h.sim_PI.o
                0x000000001808ec76                regconfig_h_sim_pi
 .text          0x0000000018090664      0xed2 ../ddrphy_cfg/lpddr4_1600_cl28_bl16/regconfig_pi_start.o
                0x0000000018090664                regconfig_pi_start
 .text          0x0000000018091536      0xb0e ../ddrc_cfg/lpddr4_1066_cl20_bl16/orbit_boot_1066.o
                0x0000000018091536                orbit_boot
 .text          0x0000000018092044        0x0 /home/wyh/freedomstudio/SiFive/riscv64-unknown-elf-gcc-8.3.0-2019.08.0/bin/../lib/gcc/riscv64-unknown-elf/8.3.0/../../../../riscv64-unknown-elf/lib/rv64imafdc/lp64d/libc_nano.a(lib_a-lldiv.o)
 .text.lldiv    0x0000000018092044       0x1e /home/wyh/freedomstudio/SiFive/riscv64-unknown-elf-gcc-8.3.0-2019.08.0/bin/../lib/gcc/riscv64-unknown-elf/8.3.0/../../../../riscv64-unknown-elf/lib/rv64imafdc/lp64d/libc_nano.a(lib_a-lldiv.o)
                0x0000000018092044                lldiv
 .text          0x0000000018092062        0x0 /home/wyh/freedomstudio/SiFive/riscv64-unknown-elf-gcc-8.3.0-2019.08.0/bin/../lib/gcc/riscv64-unknown-elf/8.3.0/../../../../riscv64-unknown-elf/lib/rv64imafdc/lp64d/libc_nano.a(lib_a-memcmp.o)
 .text.memcmp   0x0000000018092062       0x26 /home/wyh/freedomstudio/SiFive/riscv64-unknown-elf-gcc-8.3.0-2019.08.0/bin/../lib/gcc/riscv64-unknown-elf/8.3.0/../../../../riscv64-unknown-elf/lib/rv64imafdc/lp64d/libc_nano.a(lib_a-memcmp.o)
                0x0000000018092062                memcmp
 *(.gnu.linkonce.t.*)
                [!provide]                        PROVIDE (__etext = .)
                [!provide]                        PROVIDE (_etext = .)
                [!provide]                        PROVIDE (etext = .)

.rodata         0x0000000018092088      0xbb0
 *(.rdata)
 *(.rodata .rodata.*)
 .rodata        0x0000000018092088       0x1c ../boot/bootmain.o
 *fill*         0x00000000180920a4        0x4 
 .rodata.str1.8
                0x00000000180920a8      0x246 ../boot/bootmain.o
 *fill*         0x00000000180922ee        0x2 
 .rodata.str1.8
                0x00000000180922f0       0x1b ../boot/trap.o
 *fill*         0x000000001809230b        0x5 
 .rodata        0x0000000018092310       0x88 ../uart/uart.o
 .rodata.str1.8
                0x0000000018092398        0x4 ../uart/uart.o
                                          0xb (size before relaxing)
 *fill*         0x000000001809239c        0x4 
 .rodata        0x00000000180923a0       0x80 ../uart/cmd.o
                0x00000000180923a0                CmdHandle
 .rodata.str1.8
                0x0000000018092420      0x33b ../uart/cmd.o
                                        0x343 (size before relaxing)
 *fill*         0x000000001809275b        0x5 
 .rodata        0x0000000018092760      0x100 ../common/ctype.o
                0x0000000018092760                _ctype
 .rodata        0x0000000018092860       0x30 ../spi/spi_probe.o
 .rodata.str1.8
                0x0000000018092890       0x1f ../spi/spi_probe.o
 *fill*         0x00000000180928af        0x1 
 .rodata.str1.8
                0x00000000180928b0       0x14 ../spi/cadence_qspi_apb.o
 .rodata        0x00000000180928c4       0x1c ../timer/timer.o
 .rodata        0x00000000180928e0       0x60 ../sdio/dw_mmc.o
 .rodata.str1.8
                0x0000000018092940       0xcd ../sdio/dw_mmc.o
 *fill*         0x0000000018092a0d        0x3 
 .rodata        0x0000000018092a10       0xf4 ../sdio/mmc.o
 *fill*         0x0000000018092b04        0x4 
 .rodata.str1.8
                0x0000000018092b08       0x16 ../sdio/mmc.o
 *fill*         0x0000000018092b1e        0x2 
 .rodata.str1.8
                0x0000000018092b20       0x7b ../sdio/mmc_write.o
 *fill*         0x0000000018092b9b        0x5 
 .rodata.str1.8
                0x0000000018092ba0       0x78 ../sdio/sdio.o
                                         0x75 (size before relaxing)
 .rodata        0x0000000018092c18       0x20 ../gpt/gpt.o
                0x0000000018092c18                gpt_guid_sifive_kernel
                0x0000000018092c28                gpt_guid_sifive_uboot
 *(.gnu.linkonce.r.*)

.eh_frame
 *(.eh_frame)

.srodata        0x0000000018092c38        0x8
 *(.srodata.cst16)
 *(.srodata.cst8)
 .srodata.cst8  0x0000000018092c38        0x8 ../sdio/sdio.o
 *(.srodata.cst4)
 *(.srodata.cst2)
 *(.srodata.*)

.rela.dyn       0x0000000018092c40        0x0
 .rela.init     0x0000000018092c40        0x0 ../boot/start.o
 .rela.text     0x0000000018092c40        0x0 ../boot/start.o

.data           0x0000000018092c40        0x0
 *(.data .data.* .gnu.linkonce.d.*)
 .data          0x0000000018092c40        0x0 ../boot/start.o
 .data          0x0000000018092c40        0x0 ../boot/bootmain.o
 .data          0x0000000018092c40        0x0 ../boot/trap.o
 .data          0x0000000018092c40        0x0 ../uart/uart.o
 .data          0x0000000018092c40        0x0 ../uart/cmd.o
 .data          0x0000000018092c40        0x0 ../uart/xmodem.o
 .data          0x0000000018092c40        0x0 ../common/util.o
 .data          0x0000000018092c40        0x0 ../common/ctype.o
 .data          0x0000000018092c40        0x0 ../gpio/gpio.o
 .data          0x0000000018092c40        0x0 ../spi/spi.o
 .data          0x0000000018092c40        0x0 ../spi/spi_probe.o
 .data          0x0000000018092c40        0x0 ../spi/cadence_qspi.o
 .data          0x0000000018092c40        0x0 ../spi/spi_flash.o
 .data          0x0000000018092c40        0x0 ../spi/cadence_qspi_apb.o
 .data          0x0000000018092c40        0x0 ../timer/timer.o
 .data          0x0000000018092c40        0x0 ../sdio/bouncebuf.o
 .data          0x0000000018092c40        0x0 ../sdio/dw_mmc.o
 .data          0x0000000018092c40        0x0 ../sdio/mmc.o
 .data          0x0000000018092c40        0x0 ../sdio/mmc_write.o
 .data          0x0000000018092c40        0x0 ../sdio/sdio.o
 .data          0x0000000018092c40        0x0 ../gpt/gpt.o
 .data          0x0000000018092c40        0x0 ../ddrphy_cfg/regconfig.h.sim_PHY.o
 .data          0x0000000018092c40        0x0 ../ddrphy_cfg/regconfig.h.sim_PI.o
 .data          0x0000000018092c40        0x0 ../ddrphy_cfg/lpddr4_1600_cl28_bl16/regconfig_pi_start.o
 .data          0x0000000018092c40        0x0 ../ddrc_cfg/lpddr4_1066_cl20_bl16/orbit_boot_1066.o
 .data          0x0000000018092c40        0x0 /home/wyh/freedomstudio/SiFive/riscv64-unknown-elf-gcc-8.3.0-2019.08.0/bin/../lib/gcc/riscv64-unknown-elf/8.3.0/../../../../riscv64-unknown-elf/lib/rv64imafdc/lp64d/libc_nano.a(lib_a-lldiv.o)
 .data          0x0000000018092c40        0x0 /home/wyh/freedomstudio/SiFive/riscv64-unknown-elf-gcc-8.3.0-2019.08.0/bin/../lib/gcc/riscv64-unknown-elf/8.3.0/../../../../riscv64-unknown-elf/lib/rv64imafdc/lp64d/libc_nano.a(lib_a-memcmp.o)
                0x0000000018092c40                . = ALIGN (0x8)
                [!provide]                        PROVIDE (__global_pointer$ = (. + 0x800))
 *(.tohost)

.sdata          0x0000000018092c40       0x1c
 *(.sdata .sdata.* .gnu.linkonce.s.*)
 .sdata         0x0000000018092c40       0x18 ../uart/cmd.o
                0x0000000018092c40                Showlength
                0x0000000018092c48                showMode
                0x0000000018092c4c                gcurCmd
                0x0000000018092c50                StdHdl
 .sdata         0x0000000018092c58        0x4 ../sdio/mmc.o
                0x0000000018092c40                PROVIDE (_data = ADDR (.data))
                0x0000000018092c40                PROVIDE (_data_lma = LOADADDR (.data))
                0x0000000018092c5c                PROVIDE (_edata = .)
                0x0000000018092c60                . = ALIGN (0x8)
                0x0000000018092c60                PROVIDE (_bss_start = .)

.bss            0x0000000018092c60      0x338
 *(.sbss*)
 .sbss          0x0000000018092c60        0x4 ../uart/uart.o
                0x0000000018092c60                uart_id
 *fill*         0x0000000018092c64        0x4 
 .sbss          0x0000000018092c68        0x8 ../uart/cmd.o
                0x0000000018092c68                pCurShow
 .sbss          0x0000000018092c70        0x4 ../uart/xmodem.o
                0x0000000018092c70                receive_count
 .sbss          0x0000000018092c74        0x4 ../spi/spi_probe.o
 .sbss          0x0000000018092c78       0x1c ../timer/timer.o
                0x0000000018092c90                interrupt_count
 *(.gnu.linkonce.sb.*)
 *(.bss .bss.*)
 .bss           0x0000000018092c94        0x0 ../boot/start.o
 .bss           0x0000000018092c94        0x0 ../boot/bootmain.o
 .bss           0x0000000018092c94        0x0 ../boot/trap.o
 .bss           0x0000000018092c94        0x0 ../uart/uart.o
 .bss           0x0000000018092c94        0x0 ../uart/cmd.o
 .bss           0x0000000018092c94        0x0 ../uart/xmodem.o
 .bss           0x0000000018092c94        0x0 ../common/util.o
 .bss           0x0000000018092c94        0x0 ../common/ctype.o
 .bss           0x0000000018092c94        0x0 ../gpio/gpio.o
 .bss           0x0000000018092c94        0x0 ../spi/spi.o
 *fill*         0x0000000018092c94        0x4 
 .bss           0x0000000018092c98       0x38 ../spi/spi_probe.o
 .bss           0x0000000018092cd0        0x0 ../spi/cadence_qspi.o
 .bss           0x0000000018092cd0        0x0 ../spi/spi_flash.o
 .bss           0x0000000018092cd0        0x0 ../spi/cadence_qspi_apb.o
 .bss           0x0000000018092cd0       0x18 ../timer/timer.o
 .bss           0x0000000018092ce8        0x0 ../sdio/bouncebuf.o
 .bss           0x0000000018092ce8        0x0 ../sdio/dw_mmc.o
 .bss           0x0000000018092ce8        0x0 ../sdio/mmc.o
 .bss           0x0000000018092ce8        0x0 ../sdio/mmc_write.o
 .bss           0x0000000018092ce8        0x0 ../sdio/sdio.o
 .bss           0x0000000018092ce8        0x0 ../gpt/gpt.o
 .bss           0x0000000018092ce8        0x0 ../ddrphy_cfg/regconfig.h.sim_PHY.o
 .bss           0x0000000018092ce8        0x0 ../ddrphy_cfg/regconfig.h.sim_PI.o
 .bss           0x0000000018092ce8        0x0 ../ddrphy_cfg/lpddr4_1600_cl28_bl16/regconfig_pi_start.o
 .bss           0x0000000018092ce8        0x0 ../ddrc_cfg/lpddr4_1066_cl20_bl16/orbit_boot_1066.o
 .bss           0x0000000018092ce8        0x0 /home/wyh/freedomstudio/SiFive/riscv64-unknown-elf-gcc-8.3.0-2019.08.0/bin/../lib/gcc/riscv64-unknown-elf/8.3.0/../../../../riscv64-unknown-elf/lib/rv64imafdc/lp64d/libc_nano.a(lib_a-lldiv.o)
 .bss           0x0000000018092ce8        0x0 /home/wyh/freedomstudio/SiFive/riscv64-unknown-elf-gcc-8.3.0-2019.08.0/bin/../lib/gcc/riscv64-unknown-elf/8.3.0/../../../../riscv64-unknown-elf/lib/rv64imafdc/lp64d/libc_nano.a(lib_a-memcmp.o)
 *(.gnu.linkonce.b.*)
 *(COMMON)
 COMMON         0x0000000018092ce8        0x8 ../spi/spi.o
                0x0000000018092ce8                operations
 COMMON         0x0000000018092cf0       0xb0 ../spi/cadence_qspi.o
                0x0000000018092cf0                vic_spi_slave
                0x0000000018092d08                spi_priv
                0x0000000018092d50                cadence_spi4x_func
                0x0000000018092d60                cadence_plat
 COMMON         0x0000000018092da0      0x1f8 ../sdio/sdio.o
                0x0000000018092da0                local_mmc0
                0x0000000018092f08                local_host0
                0x0000000018092f98                . = ALIGN (0x8)
                [!provide]                        PROVIDE (_ebss = .)
                [!provide]                        PROVIDE (_end = .)
                0x0000000018092f98                PROVIDE (_bss_end = .)
                0x0000000018094ff8                PROVIDE (_sp = ALIGN ((MIN ((ORIGIN (ram) + LENGTH (ram)), (_bss_end + 0x2064)) - 0x7), 0x8))
                [!provide]                        PROVIDE (_heap_end = (_sp - 0x100))

.stack          0x0000000018092f98        0x0
                0x0000000000000001                ASSERT ((_sp >= (_bss_end + 0x1000)), Error: No room left for the heap and stack)
OUTPUT(ddrinit.elf elf64-littleriscv)

.riscv.attributes
                0x0000000000000000       0x35
 .riscv.attributes
                0x0000000000000000       0x33 ../boot/start.o
 .riscv.attributes
                0x0000000000000033       0x35 ../boot/bootmain.o
 .riscv.attributes
                0x0000000000000068       0x35 ../boot/trap.o
 .riscv.attributes
                0x000000000000009d       0x35 ../uart/uart.o
 .riscv.attributes
                0x00000000000000d2       0x35 ../uart/cmd.o
 .riscv.attributes
                0x0000000000000107       0x35 ../uart/xmodem.o
 .riscv.attributes
                0x000000000000013c       0x35 ../common/util.o
 .riscv.attributes
                0x0000000000000171       0x35 ../common/ctype.o
 .riscv.attributes
                0x00000000000001a6       0x35 ../gpio/gpio.o
 .riscv.attributes
                0x00000000000001db       0x35 ../spi/spi.o
 .riscv.attributes
                0x0000000000000210       0x35 ../spi/spi_probe.o
 .riscv.attributes
                0x0000000000000245       0x35 ../spi/cadence_qspi.o
 .riscv.attributes
                0x000000000000027a       0x35 ../spi/spi_flash.o
 .riscv.attributes
                0x00000000000002af       0x35 ../spi/cadence_qspi_apb.o
 .riscv.attributes
                0x00000000000002e4       0x35 ../timer/timer.o
 .riscv.attributes
                0x0000000000000319       0x35 ../sdio/bouncebuf.o
 .riscv.attributes
                0x000000000000034e       0x35 ../sdio/dw_mmc.o
 .riscv.attributes
                0x0000000000000383       0x35 ../sdio/mmc.o
 .riscv.attributes
                0x00000000000003b8       0x35 ../sdio/mmc_write.o
 .riscv.attributes
                0x00000000000003ed       0x35 ../sdio/sdio.o
 .riscv.attributes
                0x0000000000000422       0x35 ../gpt/gpt.o
 .riscv.attributes
                0x0000000000000457       0x35 ../ddrphy_cfg/regconfig.h.sim_PHY.o
 .riscv.attributes
                0x000000000000048c       0x35 ../ddrphy_cfg/regconfig.h.sim_PI.o
 .riscv.attributes
                0x00000000000004c1       0x35 ../ddrphy_cfg/lpddr4_1600_cl28_bl16/regconfig_pi_start.o
 .riscv.attributes
                0x00000000000004f6       0x35 ../ddrc_cfg/lpddr4_1066_cl20_bl16/orbit_boot_1066.o
 .riscv.attributes
                0x000000000000052b       0x35 /home/wyh/freedomstudio/SiFive/riscv64-unknown-elf-gcc-8.3.0-2019.08.0/bin/../lib/gcc/riscv64-unknown-elf/8.3.0/../../../../riscv64-unknown-elf/lib/rv64imafdc/lp64d/libc_nano.a(lib_a-lldiv.o)
 .riscv.attributes
                0x0000000000000560       0x35 /home/wyh/freedomstudio/SiFive/riscv64-unknown-elf-gcc-8.3.0-2019.08.0/bin/../lib/gcc/riscv64-unknown-elf/8.3.0/../../../../riscv64-unknown-elf/lib/rv64imafdc/lp64d/libc_nano.a(lib_a-memcmp.o)

.comment        0x0000000000000000       0x28
 .comment       0x0000000000000000       0x28 ../boot/bootmain.o
                                         0x29 (size before relaxing)
 .comment       0x0000000000000028       0x29 ../boot/trap.o
 .comment       0x0000000000000028       0x29 ../uart/uart.o
 .comment       0x0000000000000028       0x29 ../uart/cmd.o
 .comment       0x0000000000000028       0x29 ../uart/xmodem.o
 .comment       0x0000000000000028       0x29 ../common/util.o
 .comment       0x0000000000000028       0x29 ../common/ctype.o
 .comment       0x0000000000000028       0x29 ../gpio/gpio.o
 .comment       0x0000000000000028       0x29 ../spi/spi.o
 .comment       0x0000000000000028       0x29 ../spi/spi_probe.o
 .comment       0x0000000000000028       0x29 ../spi/cadence_qspi.o
 .comment       0x0000000000000028       0x29 ../spi/spi_flash.o
 .comment       0x0000000000000028       0x29 ../spi/cadence_qspi_apb.o
 .comment       0x0000000000000028       0x29 ../timer/timer.o
 .comment       0x0000000000000028       0x29 ../sdio/bouncebuf.o
 .comment       0x0000000000000028       0x29 ../sdio/dw_mmc.o
 .comment       0x0000000000000028       0x29 ../sdio/mmc.o
 .comment       0x0000000000000028       0x29 ../sdio/mmc_write.o
 .comment       0x0000000000000028       0x29 ../sdio/sdio.o
 .comment       0x0000000000000028       0x29 ../gpt/gpt.o
 .comment       0x0000000000000028       0x29 ../ddrphy_cfg/regconfig.h.sim_PHY.o
 .comment       0x0000000000000028       0x29 ../ddrphy_cfg/regconfig.h.sim_PI.o
 .comment       0x0000000000000028       0x29 ../ddrphy_cfg/lpddr4_1600_cl28_bl16/regconfig_pi_start.o
 .comment       0x0000000000000028       0x29 ../ddrc_cfg/lpddr4_1066_cl20_bl16/orbit_boot_1066.o
 .comment       0x0000000000000028       0x29 /home/wyh/freedomstudio/SiFive/riscv64-unknown-elf-gcc-8.3.0-2019.08.0/bin/../lib/gcc/riscv64-unknown-elf/8.3.0/../../../../riscv64-unknown-elf/lib/rv64imafdc/lp64d/libc_nano.a(lib_a-lldiv.o)
 .comment       0x0000000000000028       0x29 /home/wyh/freedomstudio/SiFive/riscv64-unknown-elf-gcc-8.3.0-2019.08.0/bin/../lib/gcc/riscv64-unknown-elf/8.3.0/../../../../riscv64-unknown-elf/lib/rv64imafdc/lp64d/libc_nano.a(lib_a-memcmp.o)

.debug_line     0x0000000000000000    0x236b9
 .debug_line    0x0000000000000000      0x164 ../boot/start.o
 .debug_line    0x0000000000000164      0xf12 ../boot/bootmain.o
 .debug_line    0x0000000000001076      0x105 ../boot/trap.o
 .debug_line    0x000000000000117b     0x1c00 ../uart/uart.o
 .debug_line    0x0000000000002d7b     0x23c4 ../uart/cmd.o
 .debug_line    0x000000000000513f      0x68a ../uart/xmodem.o
 .debug_line    0x00000000000057c9      0x407 ../common/util.o
 .debug_line    0x0000000000005bd0       0x3d ../common/ctype.o
 .debug_line    0x0000000000005c0d      0x396 ../gpio/gpio.o
 .debug_line    0x0000000000005fa3      0x1a5 ../spi/spi.o
 .debug_line    0x0000000000006148      0x3ba ../spi/spi_probe.o
 .debug_line    0x0000000000006502      0xb4a ../spi/cadence_qspi.o
 .debug_line    0x000000000000704c     0x123a ../spi/spi_flash.o
 .debug_line    0x0000000000008286     0x1f36 ../spi/cadence_qspi_apb.o
 .debug_line    0x000000000000a1bc      0xeed ../timer/timer.o
 .debug_line    0x000000000000b0a9       0xda ../sdio/bouncebuf.o
 .debug_line    0x000000000000b183     0x1a02 ../sdio/dw_mmc.o
 .debug_line    0x000000000000cb85     0x3cde ../sdio/mmc.o
 .debug_line    0x0000000000010863      0x6c4 ../sdio/mmc_write.o
 .debug_line    0x0000000000010f27      0x7ac ../sdio/sdio.o
 .debug_line    0x00000000000116d3      0x108 ../gpt/gpt.o
 .debug_line    0x00000000000117db     0xca73 ../ddrphy_cfg/regconfig.h.sim_PHY.o
 .debug_line    0x000000000001e24e     0x2146 ../ddrphy_cfg/regconfig.h.sim_PI.o
 .debug_line    0x0000000000020394     0x1e59 ../ddrphy_cfg/lpddr4_1600_cl28_bl16/regconfig_pi_start.o
 .debug_line    0x00000000000221ed     0x14cc ../ddrc_cfg/lpddr4_1066_cl20_bl16/orbit_boot_1066.o

.debug_info     0x0000000000000000    0x15019
 .debug_info    0x0000000000000000       0x2e ../boot/start.o
 .debug_info    0x000000000000002e     0x194a ../boot/bootmain.o
 .debug_info    0x0000000000001978      0x1d6 ../boot/trap.o
 .debug_info    0x0000000000001b4e     0x18b3 ../uart/uart.o
 .debug_info    0x0000000000003401     0x1cc9 ../uart/cmd.o
 .debug_info    0x00000000000050ca      0x674 ../uart/xmodem.o
 .debug_info    0x000000000000573e      0x3a1 ../common/util.o
 .debug_info    0x0000000000005adf       0x5f ../common/ctype.o
 .debug_info    0x0000000000005b3e      0x6e7 ../gpio/gpio.o
 .debug_info    0x0000000000006225      0x315 ../spi/spi.o
 .debug_info    0x000000000000653a      0x566 ../spi/spi_probe.o
 .debug_info    0x0000000000006aa0      0xd0f ../spi/cadence_qspi.o
 .debug_info    0x00000000000077af     0x2076 ../spi/spi_flash.o
 .debug_info    0x0000000000009825     0x23d1 ../spi/cadence_qspi_apb.o
 .debug_info    0x000000000000bbf6     0x1536 ../timer/timer.o
 .debug_info    0x000000000000d12c      0x139 ../sdio/bouncebuf.o
 .debug_info    0x000000000000d265     0x29eb ../sdio/dw_mmc.o
 .debug_info    0x000000000000fc50     0x2b9d ../sdio/mmc.o
 .debug_info    0x00000000000127ed      0xbbc ../sdio/mmc_write.o
 .debug_info    0x00000000000133a9     0x12f7 ../sdio/sdio.o
 .debug_info    0x00000000000146a0      0x388 ../gpt/gpt.o
 .debug_info    0x0000000000014a28       0xe8 ../ddrphy_cfg/regconfig.h.sim_PHY.o
 .debug_info    0x0000000000014b10       0xd0 ../ddrphy_cfg/regconfig.h.sim_PI.o
 .debug_info    0x0000000000014be0       0xf0 ../ddrphy_cfg/lpddr4_1600_cl28_bl16/regconfig_pi_start.o
 .debug_info    0x0000000000014cd0      0x349 ../ddrc_cfg/lpddr4_1066_cl20_bl16/orbit_boot_1066.o

.debug_abbrev   0x0000000000000000     0x3b1f
 .debug_abbrev  0x0000000000000000       0x14 ../boot/start.o
 .debug_abbrev  0x0000000000000014      0x461 ../boot/bootmain.o
 .debug_abbrev  0x0000000000000475      0x10a ../boot/trap.o
 .debug_abbrev  0x000000000000057f      0x372 ../uart/uart.o
 .debug_abbrev  0x00000000000008f1      0x475 ../uart/cmd.o
 .debug_abbrev  0x0000000000000d66      0x214 ../uart/xmodem.o
 .debug_abbrev  0x0000000000000f7a      0x163 ../common/util.o
 .debug_abbrev  0x00000000000010dd       0x52 ../common/ctype.o
 .debug_abbrev  0x000000000000112f      0x1f1 ../gpio/gpio.o
 .debug_abbrev  0x0000000000001320      0x175 ../spi/spi.o
 .debug_abbrev  0x0000000000001495      0x213 ../spi/spi_probe.o
 .debug_abbrev  0x00000000000016a8      0x2e4 ../spi/cadence_qspi.o
 .debug_abbrev  0x000000000000198c      0x3f7 ../spi/spi_flash.o
 .debug_abbrev  0x0000000000001d83      0x3a1 ../spi/cadence_qspi_apb.o
 .debug_abbrev  0x0000000000002124      0x457 ../timer/timer.o
 .debug_abbrev  0x000000000000257b       0xdd ../sdio/bouncebuf.o
 .debug_abbrev  0x0000000000002658      0x4f9 ../sdio/dw_mmc.o
 .debug_abbrev  0x0000000000002b51      0x5cb ../sdio/mmc.o
 .debug_abbrev  0x000000000000311c      0x292 ../sdio/mmc_write.o
 .debug_abbrev  0x00000000000033ae      0x3b6 ../sdio/sdio.o
 .debug_abbrev  0x0000000000003764      0x14d ../gpt/gpt.o
 .debug_abbrev  0x00000000000038b1       0x84 ../ddrphy_cfg/regconfig.h.sim_PHY.o
 .debug_abbrev  0x0000000000003935       0x73 ../ddrphy_cfg/regconfig.h.sim_PI.o
 .debug_abbrev  0x00000000000039a8       0x84 ../ddrphy_cfg/lpddr4_1600_cl28_bl16/regconfig_pi_start.o
 .debug_abbrev  0x0000000000003a2c       0xf3 ../ddrc_cfg/lpddr4_1066_cl20_bl16/orbit_boot_1066.o

.debug_aranges  0x0000000000000000      0x4a0
 .debug_aranges
                0x0000000000000000       0x30 ../boot/start.o
 .debug_aranges
                0x0000000000000030       0x30 ../boot/bootmain.o
 .debug_aranges
                0x0000000000000060       0x30 ../boot/trap.o
 .debug_aranges
                0x0000000000000090       0x30 ../uart/uart.o
 .debug_aranges
                0x00000000000000c0       0x30 ../uart/cmd.o
 .debug_aranges
                0x00000000000000f0       0x30 ../uart/xmodem.o
 .debug_aranges
                0x0000000000000120       0x30 ../common/util.o
 .debug_aranges
                0x0000000000000150       0x20 ../common/ctype.o
 .debug_aranges
                0x0000000000000170       0x30 ../gpio/gpio.o
 .debug_aranges
                0x00000000000001a0       0x30 ../spi/spi.o
 .debug_aranges
                0x00000000000001d0       0x30 ../spi/spi_probe.o
 .debug_aranges
                0x0000000000000200       0x30 ../spi/cadence_qspi.o
 .debug_aranges
                0x0000000000000230       0x30 ../spi/spi_flash.o
 .debug_aranges
                0x0000000000000260       0x30 ../spi/cadence_qspi_apb.o
 .debug_aranges
                0x0000000000000290       0x30 ../timer/timer.o
 .debug_aranges
                0x00000000000002c0       0x30 ../sdio/bouncebuf.o
 .debug_aranges
                0x00000000000002f0       0x30 ../sdio/dw_mmc.o
 .debug_aranges
                0x0000000000000320       0x30 ../sdio/mmc.o
 .debug_aranges
                0x0000000000000350       0x30 ../sdio/mmc_write.o
 .debug_aranges
                0x0000000000000380       0x30 ../sdio/sdio.o
 .debug_aranges
                0x00000000000003b0       0x30 ../gpt/gpt.o
 .debug_aranges
                0x00000000000003e0       0x30 ../ddrphy_cfg/regconfig.h.sim_PHY.o
 .debug_aranges
                0x0000000000000410       0x30 ../ddrphy_cfg/regconfig.h.sim_PI.o
 .debug_aranges
                0x0000000000000440       0x30 ../ddrphy_cfg/lpddr4_1600_cl28_bl16/regconfig_pi_start.o
 .debug_aranges
                0x0000000000000470       0x30 ../ddrc_cfg/lpddr4_1066_cl20_bl16/orbit_boot_1066.o

.debug_str      0x0000000000000000     0x2139
 .debug_str     0x0000000000000000       0x34 ../boot/start.o
 .debug_str     0x0000000000000034      0x3f2 ../boot/bootmain.o
                                        0x4c9 (size before relaxing)
 .debug_str     0x0000000000000426       0x42 ../boot/trap.o
                                        0x108 (size before relaxing)
 .debug_str     0x0000000000000468      0x10a ../uart/uart.o
                                        0x256 (size before relaxing)
 .debug_str     0x0000000000000572      0x229 ../uart/cmd.o
                                        0x376 (size before relaxing)
 .debug_str     0x000000000000079b       0x7e ../uart/xmodem.o
                                        0x1b2 (size before relaxing)
 .debug_str     0x0000000000000819       0x72 ../common/util.o
                                        0x154 (size before relaxing)
 .debug_str     0x000000000000088b       0x12 ../common/ctype.o
                                         0x94 (size before relaxing)
 .debug_str     0x000000000000089d       0x4e ../gpio/gpio.o
                                        0x17d (size before relaxing)
 .debug_str     0x00000000000008eb       0x74 ../spi/spi.o
                                        0x17b (size before relaxing)
 .debug_str     0x000000000000095f       0xe1 ../spi/spi_probe.o
                                        0x24c (size before relaxing)
 .debug_str     0x0000000000000a40      0x392 ../spi/cadence_qspi.o
                                        0x55c (size before relaxing)
 .debug_str     0x0000000000000dd2      0x2b3 ../spi/spi_flash.o
                                        0x43f (size before relaxing)
 .debug_str     0x0000000000001085      0x265 ../spi/cadence_qspi_apb.o
                                        0x5e6 (size before relaxing)
 .debug_str     0x00000000000012ea      0x2ab ../timer/timer.o
                                        0x40f (size before relaxing)
 .debug_str     0x0000000000001595       0x4e ../sdio/bouncebuf.o
                                        0x11e (size before relaxing)
 .debug_str     0x00000000000015e3      0x40e ../sdio/dw_mmc.o
                                        0x60f (size before relaxing)
 .debug_str     0x00000000000019f1      0x399 ../sdio/mmc.o
                                        0x7bb (size before relaxing)
 .debug_str     0x0000000000001d8a       0x8a ../sdio/mmc_write.o
                                        0x474 (size before relaxing)
 .debug_str     0x0000000000001e14      0x213 ../sdio/sdio.o
                                        0x6b9 (size before relaxing)
 .debug_str     0x0000000000002027       0x5e ../gpt/gpt.o
                                        0x2cd (size before relaxing)
 .debug_str     0x0000000000002085       0x24 ../ddrphy_cfg/regconfig.h.sim_PHY.o
                                        0x13d (size before relaxing)
 .debug_str     0x00000000000020a9       0x23 ../ddrphy_cfg/regconfig.h.sim_PI.o
                                        0x13b (size before relaxing)
 .debug_str     0x00000000000020cc       0x39 ../ddrphy_cfg/lpddr4_1600_cl28_bl16/regconfig_pi_start.o
                                        0x159 (size before relaxing)
 .debug_str     0x0000000000002105       0x34 ../ddrc_cfg/lpddr4_1066_cl20_bl16/orbit_boot_1066.o
                                        0x17a (size before relaxing)

.debug_loc      0x0000000000000000    0x19e8a
 .debug_loc     0x0000000000000000     0x11e5 ../boot/bootmain.o
 .debug_loc     0x00000000000011e5       0xfe ../boot/trap.o
 .debug_loc     0x00000000000012e3     0x23d3 ../uart/uart.o
 .debug_loc     0x00000000000036b6     0x2ba0 ../uart/cmd.o
 .debug_loc     0x0000000000006256      0x96a ../uart/xmodem.o
 .debug_loc     0x0000000000006bc0      0x723 ../common/util.o
 .debug_loc     0x00000000000072e3      0x76c ../gpio/gpio.o
 .debug_loc     0x0000000000007a4f      0x42f ../spi/spi.o
 .debug_loc     0x0000000000007e7e      0x427 ../spi/spi_probe.o
 .debug_loc     0x00000000000082a5      0xef5 ../spi/cadence_qspi.o
 .debug_loc     0x000000000000919a     0x323b ../spi/spi_flash.o
 .debug_loc     0x000000000000c3d5     0x34ec ../spi/cadence_qspi_apb.o
 .debug_loc     0x000000000000f8c1     0x160b ../timer/timer.o
 .debug_loc     0x0000000000010ecc       0x39 ../sdio/bouncebuf.o
 .debug_loc     0x0000000000010f05     0x3055 ../sdio/dw_mmc.o
 .debug_loc     0x0000000000013f5a     0x3cea ../sdio/mmc.o
 .debug_loc     0x0000000000017c44      0x6b8 ../sdio/mmc_write.o
 .debug_loc     0x00000000000182fc      0x981 ../sdio/sdio.o
 .debug_loc     0x0000000000018c7d      0x1b5 ../gpt/gpt.o
 .debug_loc     0x0000000000018e32       0xab ../ddrphy_cfg/regconfig.h.sim_PHY.o
 .debug_loc     0x0000000000018edd       0xab ../ddrphy_cfg/regconfig.h.sim_PI.o
 .debug_loc     0x0000000000018f88      0x9f9 ../ddrphy_cfg/lpddr4_1600_cl28_bl16/regconfig_pi_start.o
 .debug_loc     0x0000000000019981      0x509 ../ddrc_cfg/lpddr4_1066_cl20_bl16/orbit_boot_1066.o

.debug_ranges   0x0000000000000000     0x5260
 .debug_ranges  0x0000000000000000      0x4f0 ../boot/bootmain.o
 .debug_ranges  0x00000000000004f0      0x890 ../uart/uart.o
 .debug_ranges  0x0000000000000d80      0x730 ../uart/cmd.o
 .debug_ranges  0x00000000000014b0       0xd0 ../uart/xmodem.o
 .debug_ranges  0x0000000000001580       0x50 ../common/util.o
 .debug_ranges  0x00000000000015d0      0x160 ../gpio/gpio.o
 .debug_ranges  0x0000000000001730       0xf0 ../spi/cadence_qspi.o
 .debug_ranges  0x0000000000001820      0x910 ../spi/spi_flash.o
 .debug_ranges  0x0000000000002130      0x9f0 ../spi/cadence_qspi_apb.o
 .debug_ranges  0x0000000000002b20      0x5e0 ../timer/timer.o
 .debug_ranges  0x0000000000003100       0x30 ../sdio/bouncebuf.o
 .debug_ranges  0x0000000000003130      0xaf0 ../sdio/dw_mmc.o
 .debug_ranges  0x0000000000003c20      0xda0 ../sdio/mmc.o
 .debug_ranges  0x00000000000049c0      0x120 ../sdio/mmc_write.o
 .debug_ranges  0x0000000000004ae0      0x5e0 ../sdio/sdio.o
 .debug_ranges  0x00000000000050c0       0x80 ../gpt/gpt.o
 .debug_ranges  0x0000000000005140      0x120 ../ddrc_cfg/lpddr4_1066_cl20_bl16/orbit_boot_1066.o

.debug_frame    0x0000000000000000     0x1df0
 .debug_frame   0x0000000000000000      0x1f0 ../boot/bootmain.o
 .debug_frame   0x00000000000001f0       0x50 ../boot/trap.o
 .debug_frame   0x0000000000000240      0x1c8 ../uart/uart.o
 .debug_frame   0x0000000000000408      0x428 ../uart/cmd.o
 .debug_frame   0x0000000000000830      0x120 ../uart/xmodem.o
 .debug_frame   0x0000000000000950       0xb8 ../common/util.o
 .debug_frame   0x0000000000000a08       0x70 ../gpio/gpio.o
 .debug_frame   0x0000000000000a78       0x70 ../spi/spi.o
 .debug_frame   0x0000000000000ae8       0x60 ../spi/spi_probe.o
 .debug_frame   0x0000000000000b48      0x108 ../spi/cadence_qspi.o
 .debug_frame   0x0000000000000c50      0x438 ../spi/spi_flash.o
 .debug_frame   0x0000000000001088      0x270 ../spi/cadence_qspi_apb.o
 .debug_frame   0x00000000000012f8      0x250 ../timer/timer.o
 .debug_frame   0x0000000000001548       0x28 ../sdio/bouncebuf.o
 .debug_frame   0x0000000000001570      0x148 ../sdio/dw_mmc.o
 .debug_frame   0x00000000000016b8      0x3f8 ../sdio/mmc.o
 .debug_frame   0x0000000000001ab0       0xc8 ../sdio/mmc_write.o
 .debug_frame   0x0000000000001b78       0xb8 ../sdio/sdio.o
 .debug_frame   0x0000000000001c30       0x38 ../gpt/gpt.o
 .debug_frame   0x0000000000001c68       0x70 ../ddrphy_cfg/regconfig.h.sim_PHY.o
 .debug_frame   0x0000000000001cd8       0x40 ../ddrphy_cfg/regconfig.h.sim_PI.o
 .debug_frame   0x0000000000001d18       0x68 ../ddrphy_cfg/lpddr4_1600_cl28_bl16/regconfig_pi_start.o
 .debug_frame   0x0000000000001d80       0x70 ../ddrc_cfg/lpddr4_1066_cl20_bl16/orbit_boot_1066.o
