
ddrinit.elf:     file format elf64-littleriscv


Disassembly of section .init:

0000000018080000 <_start>:
	.section .init
	.globl _start

_start:

	la t0, trap_entry
    18080000:	00000297          	auipc	t0,0x0
    18080004:	52228293          	addi	t0,t0,1314 # 18080522 <trap_entry>
	csrw mtvec, t0
    18080008:	30529073          	csrw	mtvec,t0
	csrwi mstatus, 0
    1808000c:	30005073          	csrwi	mstatus,0
	csrwi mie, 0
    18080010:	30405073          	csrwi	mie,0

	// Allocate 4 KiB stack for each hart
	csrr t0, mhartid
    18080014:	f14022f3          	csrr	t0,mhartid
	slli t0, t0, 12
    18080018:	02b2                	slli	t0,t0,0xc
	la sp, _sp
    1808001a:	00015117          	auipc	sp,0x15
    1808001e:	9ee10113          	addi	sp,sp,-1554 # 18094a08 <_sp>
	sub sp, sp, t0
    18080022:	40510133          	sub	sp,sp,t0

	li	 a1, NONSMP_HART;
    18080026:	4581                	li	a1,0
	csrr a0, mhartid;
    18080028:	f1402573          	csrr	a0,mhartid
	bne  a0, a1, .LbootOtherHart //other hart
    1808002c:	04b51c63          	bne	a0,a1,18080084 <_start+0x84>

	// Load data section
	la t0, _data_lma
    18080030:	00012297          	auipc	t0,0x12
    18080034:	62028293          	addi	t0,t0,1568 # 18092650 <_data_lma>
	la t1, _data
    18080038:	00012317          	auipc	t1,0x12
    1808003c:	61830313          	addi	t1,t1,1560 # 18092650 <_data_lma>
	beq t0, t1, 2f
    18080040:	02628063          	beq	t0,t1,18080060 <_start+0x60>
	la t2, _edata
    18080044:	00012397          	auipc	t2,0x12
    18080048:	62838393          	addi	t2,t2,1576 # 1809266c <_edata>
	bgeu t1, t2, 2f
    1808004c:	00737a63          	bgeu	t1,t2,18080060 <_start+0x60>
1:
	ld t3, 0(t0)
    18080050:	0002be03          	ld	t3,0(t0)
	sd t3, 0(t1)
    18080054:	01c33023          	sd	t3,0(t1)
	addi t0, t0, 8
    18080058:	02a1                	addi	t0,t0,8
	addi t1, t1, 8
    1808005a:	0321                	addi	t1,t1,8
	bltu t1, t2, 1b
    1808005c:	fe736ae3          	bltu	t1,t2,18080050 <_start+0x50>
2:

	/* Clear bss section */
	la t1, _bss_start
    18080060:	00012317          	auipc	t1,0x12
    18080064:	61030313          	addi	t1,t1,1552 # 18092670 <uart_id>
	la t2, _bss_end
    18080068:	00013397          	auipc	t2,0x13
    1808006c:	94038393          	addi	t2,t2,-1728 # 180929a8 <_bss_end>
	bgeu t1, t2, 4f
    18080070:	00737763          	bgeu	t1,t2,1808007e <_start+0x7e>
3:
  sd   x0, 0(t1)
    18080074:	00033023          	sd	zero,0(t1)
  addi t1, t1, 8
    18080078:	0321                	addi	t1,t1,8
  blt  t1, t2, 3b
    1808007a:	fe734de3          	blt	t1,t2,18080074 <_start+0x74>
4:
	/*only hart 0*/
	call BootMain
    1808007e:	192000ef          	jal	ra,18080210 <BootMain>
	j .enter_uboot
    18080082:	a81d                	j	180800b8 <.enter_uboot>
	csrw mip, 0
#endif

	# core 1 jumps to main_other_hart
	# Set MSIE bit to receive IPI
	li a2, MIP_MSIP
    18080084:	4621                	li	a2,8
	csrw mie, a2
    18080086:	30461073          	csrw	mie,a2
	
.LwaitOtherHart:
	# Wait for an IPI to signal that its safe to boot
//	call second_hart
	wfi 	
    1808008a:	10500073          	wfi
	# Only start if MIP_MSIP is set
	csrr a2, mip
    1808008e:	34402673          	csrr	a2,mip
	andi a2, a2, MIP_MSIP
    18080092:	8a21                	andi	a2,a2,8
	beqz a2, .LwaitOtherHart
    18080094:	da7d                	beqz	a2,1808008a <_start+0x8a>

	li s1, CLINT_CTRL_ADDR
    18080096:	020004b7          	lui	s1,0x2000
	csrr a0, mhartid
    1808009a:	f1402573          	csrr	a0,mhartid
	slli s2, a0, 2
    1808009e:	00251913          	slli	s2,a0,0x2
	add s2, s2, s1
    180800a2:	9926                	add	s2,s2,s1
	sw zero, 0(s2)
    180800a4:	00092023          	sw	zero,0(s2)
	fence
    180800a8:	0ff0000f          	fence
	csrw mip, 0
    180800ac:	34405073          	csrwi	mip,0
	li a2, NUM_CORES  
    180800b0:	4609                	li	a2,2
	bltu a0, a2, .enter_uboot
    180800b2:	00c56363          	bltu	a0,a2,180800b8 <.enter_uboot>
	j .LwaitOtherHart
    180800b6:	bfd1                	j	1808008a <_start+0x8a>

00000000180800b8 <.enter_uboot>:

.enter_uboot:
	li t0, DEFAULT_UBOOT_ADDR
    180800b8:	0010029b          	addiw	t0,zero,1
    180800bc:	01f29293          	slli	t0,t0,0x1f
	csrr a0, mhartid
    180800c0:	f1402573          	csrr	a0,mhartid
	la a1, 0
    180800c4:	0000059b          	sext.w	a1,zero
	jr t0
    180800c8:	8282                	jr	t0

Disassembly of section .text:

00000000180800ca <load_data.constprop.0>:
 *des_addr: store the data read from flash
 *page_offset:Offset of data stored in flash 
 *mode:flash work mode
*/

static int load_data(struct spi_flash* spi_flash,unsigned int des_addr,unsigned int page_offset,int mode)
    180800ca:	710d                	addi	sp,sp,-352
    180800cc:	f656                	sd	s5,296(sp)
	u8 *addr;
	int ret;
	int i;
	u32 offset;

	pageSize = spi_flash->page_size;
    180800ce:	01452a83          	lw	s5,20(a0)
	addr = (u8 *)des_addr;
	offset = page_offset*pageSize;
	
	/*read first page,get the file size*/
	ret = spi_flash->read(spi_flash,offset,pageSize,dataBuf,mode);
    180800d2:	711c                	ld	a5,32(a0)
static int load_data(struct spi_flash* spi_flash,unsigned int des_addr,unsigned int page_offset,int mode)
    180800d4:	f25a                	sd	s6,288(sp)
	ret = spi_flash->read(spi_flash,offset,pageSize,dataBuf,mode);
    180800d6:	8b2e                	mv	s6,a1
static int load_data(struct spi_flash* spi_flash,unsigned int des_addr,unsigned int page_offset,int mode)
    180800d8:	e2ca                	sd	s2,320(sp)
    180800da:	fa52                	sd	s4,304(sp)
    180800dc:	ee86                	sd	ra,344(sp)
    180800de:	eaa2                	sd	s0,336(sp)
    180800e0:	e6a6                	sd	s1,328(sp)
    180800e2:	fe4e                	sd	s3,312(sp)
    180800e4:	ee5e                	sd	s7,280(sp)
    180800e6:	ea62                	sd	s8,272(sp)
	offset = page_offset*pageSize;
    180800e8:	00aa959b          	slliw	a1,s5,0xa
	ret = spi_flash->read(spi_flash,offset,pageSize,dataBuf,mode);
    180800ec:	875a                	mv	a4,s6
    180800ee:	0034                	addi	a3,sp,8
    180800f0:	8656                	mv	a2,s5
static int load_data(struct spi_flash* spi_flash,unsigned int des_addr,unsigned int page_offset,int mode)
    180800f2:	892a                	mv	s2,a0
	offset = page_offset*pageSize;
    180800f4:	8a2e                	mv	s4,a1
	ret = spi_flash->read(spi_flash,offset,pageSize,dataBuf,mode);
    180800f6:	9782                	jalr	a5
	if(ret != 0)
    180800f8:	e949                	bnez	a0,1808018a <load_data.constprop.0+0xc0>
        printk("read fail#\r\n");
		return -1;
    }
	
	/*calculate file size*/
	fileSize = (dataBuf[3] << 24) | (dataBuf[2] << 16) | (dataBuf[1] << 8) | (dataBuf[0]) ;
    180800fa:	49a2                	lw	s3,8(sp)
	if(fileSize == 0)
    180800fc:	08098563          	beqz	s3,18080186 <load_data.constprop.0+0xbc>
		return -1;

	endPage = ((fileSize + 255) >> 8);//page align
    18080100:	0ff9899b          	addiw	s3,s3,255
    18080104:	8c2a                	mv	s8,a0
	/*copy the first page data*/
	sys_memcpy(addr, &dataBuf[4], SPIBOOT_LOAD_ADDR_OFFSET);
    18080106:	4505                	li	a0,1
	endPage = ((fileSize + 255) >> 8);//page align
    18080108:	0089d41b          	srliw	s0,s3,0x8
	sys_memcpy(addr, &dataBuf[4], SPIBOOT_LOAD_ADDR_OFFSET);
    1808010c:	0fc00613          	li	a2,252
    18080110:	006c                	addi	a1,sp,12
    18080112:	057e                	slli	a0,a0,0x1f
	endPage = ((fileSize + 255) >> 8);//page align
    18080114:	89a2                	mv	s3,s0
	sys_memcpy(addr, &dataBuf[4], SPIBOOT_LOAD_ADDR_OFFSET);
    18080116:	5df010ef          	jal	ra,18081ef4 <sys_memcpy>

	offset += pageSize;
    1808011a:	015a0a3b          	addw	s4,s4,s5
	addr += SPIBOOT_LOAD_ADDR_OFFSET;
	
	/*read Remaining pages data*/
	for(i=1; i<=endPage; i++)
    1808011e:	c439                	beqz	s0,1808016c <load_data.constprop.0+0xa2>
    18080120:	4485                	li	s1,1
	{ 		
		ret = spi_flash->read(spi_flash,offset,pageSize, addr, mode);
    18080122:	800007b7          	lui	a5,0x80000
	addr += SPIBOOT_LOAD_ADDR_OFFSET;
    18080126:	01f49413          	slli	s0,s1,0x1f
		ret = spi_flash->read(spi_flash,offset,pageSize, addr, mode);
    1808012a:	f047c793          	xori	a5,a5,-252
        {
            printk("read fail##\r\n");
			return -1;
        }
		offset += pageSize;
		addr +=pageSize;
    1808012e:	020a9b93          	slli	s7,s5,0x20
    18080132:	2985                	addiw	s3,s3,1
	addr += SPIBOOT_LOAD_ADDR_OFFSET;
    18080134:	0fc40413          	addi	s0,s0,252
		ret = spi_flash->read(spi_flash,offset,pageSize, addr, mode);
    18080138:	00fa0a3b          	addw	s4,s4,a5
		addr +=pageSize;
    1808013c:	020bdb93          	srli	s7,s7,0x20
    18080140:	a021                	j	18080148 <load_data.constprop.0+0x7e>
    18080142:	945e                	add	s0,s0,s7
	for(i=1; i<=endPage; i++)
    18080144:	02998463          	beq	s3,s1,1808016c <load_data.constprop.0+0xa2>
		ret = spi_flash->read(spi_flash,offset,pageSize, addr, mode);
    18080148:	02093783          	ld	a5,32(s2)
    1808014c:	86a2                	mv	a3,s0
    1808014e:	008a05bb          	addw	a1,s4,s0
    18080152:	875a                	mv	a4,s6
    18080154:	8656                	mv	a2,s5
    18080156:	854a                	mv	a0,s2
    18080158:	9782                	jalr	a5
	for(i=1; i<=endPage; i++)
    1808015a:	2485                	addiw	s1,s1,1
		if(ret != 0)
    1808015c:	d17d                	beqz	a0,18080142 <load_data.constprop.0+0x78>
            printk("read fail##\r\n");
    1808015e:	00012517          	auipc	a0,0x12
    18080162:	bf250513          	addi	a0,a0,-1038 # 18091d50 <memcmp+0x38>
    18080166:	45d000ef          	jal	ra,18080dc2 <printk>
			return -1;
    1808016a:	5c7d                	li	s8,-1
	}
	return 0;
}
    1808016c:	60f6                	ld	ra,344(sp)
    1808016e:	6456                	ld	s0,336(sp)
    18080170:	8562                	mv	a0,s8
    18080172:	64b6                	ld	s1,328(sp)
    18080174:	6916                	ld	s2,320(sp)
    18080176:	79f2                	ld	s3,312(sp)
    18080178:	7a52                	ld	s4,304(sp)
    1808017a:	7ab2                	ld	s5,296(sp)
    1808017c:	7b12                	ld	s6,288(sp)
    1808017e:	6bf2                	ld	s7,280(sp)
    18080180:	6c52                	ld	s8,272(sp)
    18080182:	6135                	addi	sp,sp,352
    18080184:	8082                	ret
		return -1;
    18080186:	5c7d                	li	s8,-1
    18080188:	b7d5                	j	1808016c <load_data.constprop.0+0xa2>
        printk("read fail#\r\n");
    1808018a:	00012517          	auipc	a0,0x12
    1808018e:	bb650513          	addi	a0,a0,-1098 # 18091d40 <memcmp+0x28>
    18080192:	431000ef          	jal	ra,18080dc2 <printk>
		return -1;
    18080196:	5c7d                	li	s8,-1
    18080198:	bfd1                	j	1808016c <load_data.constprop.0+0xa2>

000000001808019a <start2run32>:
	(( STARTRUNNING )(start))(0);		
    1808019a:	02051313          	slli	t1,a0,0x20
    1808019e:	02035313          	srli	t1,t1,0x20
    180801a2:	4501                	li	a0,0
    180801a4:	8302                	jr	t1

00000000180801a6 <boot_from_uart>:


void boot_from_uart(void)
{
    sys_cmd_proc();
    180801a6:	2fb0106f          	j	18081ca0 <sys_cmd_proc>

00000000180801aa <boot_from_sdio>:
}

void boot_from_sdio(void)
{
    180801aa:	1141                	addi	sp,sp,-16
    180801ac:	e406                	sd	ra,8(sp)
	boot_sdio_init();
    180801ae:	736050ef          	jal	ra,180858e4 <boot_sdio_init>

	/*load uboot bin file from sd card*/
	boot_load_gpt_partition((void *)DEFAULT_UBOOT_ADDR,&gpt_guid_sifive_uboot);
    180801b2:	4505                	li	a0,1
    180801b4:	00012597          	auipc	a1,0x12
    180801b8:	48458593          	addi	a1,a1,1156 # 18092638 <gpt_guid_sifive_uboot>
    180801bc:	057e                	slli	a0,a0,0x1f
    180801be:	167050ef          	jal	ra,18085b24 <boot_load_gpt_partition>

	/*load kernel bin file from sd card*/
	boot_load_gpt_partition((void *)DEFAULT_KERNEL_ADDR,&gpt_guid_sifive_kernel);
}
    180801c2:	60a2                	ld	ra,8(sp)
	boot_load_gpt_partition((void *)DEFAULT_KERNEL_ADDR,&gpt_guid_sifive_kernel);
    180801c4:	4515                	li	a0,5
    180801c6:	00012597          	auipc	a1,0x12
    180801ca:	46258593          	addi	a1,a1,1122 # 18092628 <gpt_guid_sifive_kernel>
    180801ce:	0576                	slli	a0,a0,0x1d
}
    180801d0:	0141                	addi	sp,sp,16
	boot_load_gpt_partition((void *)DEFAULT_KERNEL_ADDR,&gpt_guid_sifive_kernel);
    180801d2:	1530506f          	j	18085b24 <boot_load_gpt_partition>

00000000180801d6 <boot_from_spi>:


void boot_from_spi(int mode)
{
    180801d6:	1141                	addi	sp,sp,-16
    180801d8:	e022                	sd	s0,0(sp)
	struct spi_flash* spi_flash;
	int ret;
	u32	*addr;
	u32 val;

    cadence_qspi_init(0, mode);
    180801da:	85aa                	mv	a1,a0
{
    180801dc:	842a                	mv	s0,a0
    cadence_qspi_init(0, mode);
    180801de:	4501                	li	a0,0
{
    180801e0:	e406                	sd	ra,8(sp)
    cadence_qspi_init(0, mode);
    180801e2:	424020ef          	jal	ra,18082606 <cadence_qspi_init>
	spi_flash = spi_flash_probe(0, 0, 50000000, 0, (u32)SPI_DATAMODE_8);
    180801e6:	02faf637          	lui	a2,0x2faf
    180801ea:	4581                	li	a1,0
    180801ec:	4721                	li	a4,8
    180801ee:	4681                	li	a3,0
    180801f0:	08060613          	addi	a2,a2,128 # 2faf080 <__stack_size+0x2fae880>
    180801f4:	4501                	li	a0,0
    180801f6:	7ed010ef          	jal	ra,180821e2 <spi_flash_probe>

	/*load uboot*/
	load_data(spi_flash,DEFAULT_UBOOT_ADDR,DEFAULT_UBOOT_OFFSET,mode);
    180801fa:	85a2                	mv	a1,s0
}
    180801fc:	6402                	ld	s0,0(sp)
    180801fe:	60a2                	ld	ra,8(sp)
    18080200:	0141                	addi	sp,sp,16
	load_data(spi_flash,DEFAULT_UBOOT_ADDR,DEFAULT_UBOOT_OFFSET,mode);
    18080202:	b5e1                	j	180800ca <load_data.constprop.0>

0000000018080204 <second_hart>:

void second_hart()
{
	printk("second hart\n");
    18080204:	00012517          	auipc	a0,0x12
    18080208:	b5c50513          	addi	a0,a0,-1188 # 18091d60 <memcmp+0x48>
    1808020c:	3b70006f          	j	18080dc2 <printk>

0000000018080210 <BootMain>:
	_SWITCH_CLOCK_clk_perh0_root_SOURCE_clk_pll0_out_;
}

/*only hartid 0 call this function*/
void BootMain(void)
{	
    18080210:	7159                	addi	sp,sp,-112
	int boot_mode = 0;
	int ret=0;

//	chip_clk_init();
	
	timer_init(0);
    18080212:	4501                	li	a0,0
{	
    18080214:	f486                	sd	ra,104(sp)
    18080216:	f0a2                	sd	s0,96(sp)
    18080218:	eca6                	sd	s1,88(sp)
    1808021a:	e8ca                	sd	s2,80(sp)
    1808021c:	e4ce                	sd	s3,72(sp)
    1808021e:	e0d2                	sd	s4,64(sp)
    18080220:	fc56                	sd	s5,56(sp)
    18080222:	f85a                	sd	s6,48(sp)
    18080224:	f45e                	sd	s7,40(sp)
    18080226:	f062                	sd	s8,32(sp)
    18080228:	ec66                	sd	s9,24(sp)
    1808022a:	e86a                	sd	s10,16(sp)
    1808022c:	e46e                	sd	s11,8(sp)
	timer_init(0);
    1808022e:	6c2030ef          	jal	ra,180838f0 <timer_init>
	gpio_init();
    18080232:	5e1010ef          	jal	ra,18082012 <gpio_init>
	uart_init(3);
    18080236:	450d                	li	a0,3
  _SWITCH_CLOCK_clk_dla_root_SOURCE_clk_osc_sys_;
    18080238:	11800437          	lui	s0,0x11800
	uart_init(3);
    1808023c:	31c000ef          	jal	ra,18080558 <uart_init>
  _SWITCH_CLOCK_clk_dla_root_SOURCE_clk_osc_sys_;
    18080240:	405c                	lw	a5,4(s0)
    18080242:	fd000937          	lui	s2,0xfd000
    18080246:	197d                	addi	s2,s2,-1
    18080248:	2781                	sext.w	a5,a5
    1808024a:	0127f7b3          	and	a5,a5,s2
  MA_OUTW(syscon_sysmain_ctrl_SCFG_pll1_REG_ADDR,0x292905);//set reset
    1808024e:	002934b7          	lui	s1,0x293
  _SWITCH_CLOCK_clk_dla_root_SOURCE_clk_osc_sys_;
    18080252:	c05c                	sw	a5,4(s0)
  MA_OUTW(syscon_sysmain_ctrl_SCFG_pll1_REG_ADDR,0x292905);//set reset
    18080254:	118509b7          	lui	s3,0x11850
    18080258:	90548793          	addi	a5,s1,-1787 # 292905 <__stack_size+0x292105>
    1808025c:	00f9a223          	sw	a5,4(s3) # 11850004 <__stack_size+0x1184f804>
  udelay(10); //wait(500*(1/25M))
    18080260:	4529                	li	a0,10
    18080262:	790030ef          	jal	ra,180839f2 <udelay>
  MA_OUTW(syscon_sysmain_ctrl_SCFG_pll1_REG_ADDR,0x0292904);//clear reset
    18080266:	90448493          	addi	s1,s1,-1788
    1808026a:	0099a223          	sw	s1,4(s3)
  udelay(10); //wait(500*(1/25M))
    1808026e:	4529                	li	a0,10
    18080270:	782030ef          	jal	ra,180839f2 <udelay>
  _SWITCH_CLOCK_clk_dla_root_SOURCE_clk_pll1_out_;
    18080274:	405c                	lw	a5,4(s0)
    18080276:	01000737          	lui	a4,0x1000
  _ENABLE_CLOCK_clk_ddrc0_;
    1808027a:	80000637          	lui	a2,0x80000
  _SWITCH_CLOCK_clk_dla_root_SOURCE_clk_pll1_out_;
    1808027e:	2781                	sext.w	a5,a5
    18080280:	0127f7b3          	and	a5,a5,s2
    18080284:	8fd9                	or	a5,a5,a4
    18080286:	c05c                	sw	a5,4(s0)
  _SWITCH_CLOCK_clk_ddrc0_SOURCE_clk_ddrosc_div2_;
    18080288:	10842703          	lw	a4,264(s0) # 11800108 <__stack_size+0x117ff908>
  _ENABLE_CLOCK_clk_ddrc0_;
    1808028c:	800007b7          	lui	a5,0x80000
    18080290:	fff7c693          	not	a3,a5
  _SWITCH_CLOCK_clk_ddrc0_SOURCE_clk_ddrosc_div2_;
    18080294:	2701                	sext.w	a4,a4
    18080296:	01277733          	and	a4,a4,s2
    1808029a:	10e42423          	sw	a4,264(s0)
  _SWITCH_CLOCK_clk_ddrc1_SOURCE_clk_ddrosc_div2_; 
    1808029e:	10c42703          	lw	a4,268(s0)
  for(int ddr_num=0; ddr_num<2; ddr_num++) {
    180802a2:	4a01                	li	s4,0
      _SWITCH_CLOCK_clk_ddrc0_SOURCE_clk_ddrosc_div2_;
    180802a4:	118009b7          	lui	s3,0x11800
  _SWITCH_CLOCK_clk_ddrc1_SOURCE_clk_ddrosc_div2_; 
    180802a8:	2701                	sext.w	a4,a4
    180802aa:	01277733          	and	a4,a4,s2
    180802ae:	10e42623          	sw	a4,268(s0)
  _ENABLE_CLOCK_clk_ddrc0_;
    180802b2:	10842703          	lw	a4,264(s0)
    apb_write(PHY_APB_BASE_ADDR + (0 +0 << 2), 0x01);//release dll_rst_n
    180802b6:	4485                	li	s1,1
  for(int ddr_num=0; ddr_num<2; ddr_num++) {
    180802b8:	4a89                	li	s5,2
  _ENABLE_CLOCK_clk_ddrc0_;
    180802ba:	2701                	sext.w	a4,a4
    180802bc:	8f75                	and	a4,a4,a3
    180802be:	8f51                	or	a4,a4,a2
    180802c0:	2701                	sext.w	a4,a4
    180802c2:	10e42423          	sw	a4,264(s0)
  _ENABLE_CLOCK_clk_ddrc1_;
    180802c6:	10c42783          	lw	a5,268(s0)
    180802ca:	2781                	sext.w	a5,a5
    180802cc:	8ff5                	and	a5,a5,a3
    180802ce:	8fd1                	or	a5,a5,a2
    180802d0:	2781                	sext.w	a5,a5
    180802d2:	10f42623          	sw	a5,268(s0)
      regconfig_h_sim_pi(OMC_APB_BASE_ADDR,  OMC_SECURE_APB_BASE_ADDR,  PHY_APB_BASE_ADDR);
    180802d6:	11830637          	lui	a2,0x11830
    180802da:	110115b7          	lui	a1,0x11011
    180802de:	11010537          	lui	a0,0x11010
    180802e2:	001a041b          	addiw	s0,s4,1
    if(ddr_num == 0) {
    180802e6:	180a0b63          	beqz	s4,1808047c <BootMain+0x26c>
      regconfig_h_sim_pi(OMC_APB_BASE_ADDR,  OMC_SECURE_APB_BASE_ADDR,  PHY_APB_BASE_ADDR);
    180802ea:	6420e0ef          	jal	ra,1808e92c <regconfig_h_sim_pi>
      regconfig_h_sim_phy(OMC_APB_BASE_ADDR,  OMC_SECURE_APB_BASE_ADDR,  PHY_APB_BASE_ADDR);
    180802ee:	11830637          	lui	a2,0x11830
    180802f2:	110115b7          	lui	a1,0x11011
    180802f6:	11010537          	lui	a0,0x11010
    180802fa:	14b050ef          	jal	ra,18085c44 <regconfig_h_sim_phy>
    regconfig_pi_start(OMC_APB_BASE_ADDR,  OMC_SECURE_APB_BASE_ADDR,  PHY_APB_BASE_ADDR, ddr_num);
    180802fe:	86d2                	mv	a3,s4
    18080300:	11830637          	lui	a2,0x11830
    18080304:	110115b7          	lui	a1,0x11011
    18080308:	11010537          	lui	a0,0x11010
    1808030c:	00e100ef          	jal	ra,1809031a <regconfig_pi_start>
      _SWITCH_CLOCK_clk_ddrc1_SOURCE_clk_ddrosc_div2_;
    18080310:	10c9a783          	lw	a5,268(s3) # 1180010c <__stack_size+0x117ff90c>
    udelay(300);
    18080314:	12c00513          	li	a0,300
      _SWITCH_CLOCK_clk_ddrc1_SOURCE_clk_ddrosc_div2_;
    18080318:	2781                	sext.w	a5,a5
    1808031a:	0127f7b3          	and	a5,a5,s2
    1808031e:	10f9a623          	sw	a5,268(s3)
    udelay(300);
    18080322:	6d0030ef          	jal	ra,180839f2 <udelay>
    apb_write(PHY_APB_BASE_ADDR + (0 +0 << 2), 0x01);//release dll_rst_n
    18080326:	118307b7          	lui	a5,0x11830
    1808032a:	c384                	sw	s1,0(a5)
    udelay(300);
    1808032c:	12c00513          	li	a0,300
    18080330:	6c2030ef          	jal	ra,180839f2 <udelay>
    orbit_boot(OMC_APB_BASE_ADDR,  OMC_SECURE_APB_BASE_ADDR,  PHY_APB_BASE_ADDR, ddr_num);
    18080334:	86d2                	mv	a3,s4
    18080336:	11830637          	lui	a2,0x11830
    1808033a:	110115b7          	lui	a1,0x11011
    1808033e:	11010537          	lui	a0,0x11010
    18080342:	6ab100ef          	jal	ra,180911ec <orbit_boot>
  for(int ddr_num=0; ddr_num<2; ddr_num++) {
    18080346:	19541f63          	bne	s0,s5,180804e4 <BootMain+0x2d4>
#endif

#ifndef writel
static inline void writel(u32 val, volatile void *addr)
{
	asm volatile("sw %0, 0(%1)" : : "r" (val), "r" (addr));
    1808034a:	a5a5ac37          	lui	s8,0xa5a5a
            if(tmp != 0xa5a5a5a5)
    1808034e:	a5a5abb7          	lui	s7,0xa5a5a
    18080352:	5a5a6b37          	lui	s6,0x5a5a6
            if(tmp != 0x5a5a5a5a)
    18080356:	5a5a6ab7          	lui	s5,0x5a5a6
			if((i% 262144) == 0)						
    1808035a:	00040a37          	lui	s4,0x40
  for(int ddr_num=0; ddr_num<2; ddr_num++) {
    1808035e:	02449413          	slli	s0,s1,0x24
  u32 count = 0;
    18080362:	4c81                	li	s9,0
        for(i = 0; i < 0x80000; i++)
    18080364:	4981                	li	s3,0
    18080366:	5a5c0c1b          	addiw	s8,s8,1445
            if(tmp != 0xa5a5a5a5)
    1808036a:	5a5b8b93          	addi	s7,s7,1445 # ffffffffa5a5a5a5 <_sp+0xffffffff8d9c5b9d>
                printk("error addr %d = 0x%x\n", i *4, tmp);
    1808036e:	00012917          	auipc	s2,0x12
    18080372:	a0290913          	addi	s2,s2,-1534 # 18091d70 <memcmp+0x58>
    18080376:	a5ab0b1b          	addiw	s6,s6,-1446
            if(tmp != 0x5a5a5a5a)
    1808037a:	a5aa8a93          	addi	s5,s5,-1446 # 5a5a5a5a <_sp+0x42511052>
    1808037e:	4d81                	li	s11,0
    18080380:	5d7d                	li	s10,-1
			if((i% 262144) == 0)						
    18080382:	1a7d                	addi	s4,s4,-1
    18080384:	a02d                	j	180803ae <BootMain+0x19e>
    18080386:	01a42023          	sw	s10,0(s0)
#ifndef readl
static inline u32 readl(volatile void *addr)
{
	u32 val;

	asm volatile("lw %0, 0(%1)" : "=r" (val) : "r" (addr));
    1808038a:	4010                	lw	a2,0(s0)
            if(tmp != 0xffffffff)
    1808038c:	57fd                	li	a5,-1
    1808038e:	2601                	sext.w	a2,a2
    18080390:	00f60663          	beq	a2,a5,1808039c <BootMain+0x18c>
                printk("error addr %d = 0x%x\n", i *4, tmp);
    18080394:	85a6                	mv	a1,s1
    18080396:	854a                	mv	a0,s2
    18080398:	22b000ef          	jal	ra,18080dc2 <printk>
			if((i% 262144) == 0)						
    1808039c:	0149f7b3          	and	a5,s3,s4
    180803a0:	c7b9                	beqz	a5,180803ee <BootMain+0x1de>
        for(i = 0; i < 0x80000; i++)
    180803a2:	2985                	addiw	s3,s3,1
    180803a4:	000807b7          	lui	a5,0x80
    180803a8:	0411                	addi	s0,s0,4
    180803aa:	06f98163          	beq	s3,a5,1808040c <BootMain+0x1fc>
            writel(0xa5a5a5a5, 0x1000000000 + i *4);
    180803ae:	0004049b          	sext.w	s1,s0
	asm volatile("sw %0, 0(%1)" : : "r" (val), "r" (addr));
    180803b2:	01842023          	sw	s8,0(s0)
	asm volatile("lw %0, 0(%1)" : "=r" (val) : "r" (addr));
    180803b6:	4010                	lw	a2,0(s0)
    180803b8:	2601                	sext.w	a2,a2
            if(tmp != 0xa5a5a5a5)
    180803ba:	01760663          	beq	a2,s7,180803c6 <BootMain+0x1b6>
                printk("error addr %d = 0x%x\n", i *4, tmp);
    180803be:	85a6                	mv	a1,s1
    180803c0:	854a                	mv	a0,s2
    180803c2:	201000ef          	jal	ra,18080dc2 <printk>
	asm volatile("sw %0, 0(%1)" : : "r" (val), "r" (addr));
    180803c6:	01642023          	sw	s6,0(s0)
	asm volatile("lw %0, 0(%1)" : "=r" (val) : "r" (addr));
    180803ca:	4010                	lw	a2,0(s0)
    180803cc:	2601                	sext.w	a2,a2
            if(tmp != 0x5a5a5a5a)
    180803ce:	01560663          	beq	a2,s5,180803da <BootMain+0x1ca>
                printk("error addr %d = 0x%x\n", i *4, tmp);
    180803d2:	85a6                	mv	a1,s1
    180803d4:	854a                	mv	a0,s2
    180803d6:	1ed000ef          	jal	ra,18080dc2 <printk>
	asm volatile("sw %0, 0(%1)" : : "r" (val), "r" (addr));
    180803da:	01b42023          	sw	s11,0(s0)
	asm volatile("lw %0, 0(%1)" : "=r" (val) : "r" (addr));
    180803de:	4010                	lw	a2,0(s0)
    180803e0:	2601                	sext.w	a2,a2
            if(tmp != 0x00000000)
    180803e2:	d255                	beqz	a2,18080386 <BootMain+0x176>
                printk("error addr %d = 0x%x\n", i *4, tmp);
    180803e4:	85a6                	mv	a1,s1
    180803e6:	854a                	mv	a0,s2
    180803e8:	1db000ef          	jal	ra,18080dc2 <printk>
				fail_flag = -1;
    180803ec:	bf69                	j	18080386 <BootMain+0x176>
				count++;								
    180803ee:	2c85                	addiw	s9,s9,1
				printk("ddr 0x%x, %dM test\r\n",(i * 4), count);						
    180803f0:	8666                	mv	a2,s9
    180803f2:	85a6                	mv	a1,s1
    180803f4:	00012517          	auipc	a0,0x12
    180803f8:	99450513          	addi	a0,a0,-1644 # 18091d88 <memcmp+0x70>
    180803fc:	1c7000ef          	jal	ra,18080dc2 <printk>
        for(i = 0; i < 0x80000; i++)
    18080400:	2985                	addiw	s3,s3,1
    18080402:	000807b7          	lui	a5,0x80
    18080406:	0411                	addi	s0,s0,4
    18080408:	faf993e3          	bne	s3,a5,180803ae <BootMain+0x19e>

	ret = init_ddr();
	if(ret == 0)
	{
		_SET_SYSCON_REG_register68_SCFG_disable_u74_memaxi_remap(1);
    1808040c:	11850737          	lui	a4,0x11850
    18080410:	11072783          	lw	a5,272(a4) # 11850110 <__stack_size+0x1184f910>
		printk("DDR clk 2133M,Version 20.8.21.0\r\n");
    18080414:	00012517          	auipc	a0,0x12
    18080418:	98c50513          	addi	a0,a0,-1652 # 18091da0 <memcmp+0x88>
		_SET_SYSCON_REG_register68_SCFG_disable_u74_memaxi_remap(1);
    1808041c:	2781                	sext.w	a5,a5
    1808041e:	0017e793          	ori	a5,a5,1
    18080422:	10f72823          	sw	a5,272(a4)
		printk("DDR clk 2133M,Version 20.8.21.0\r\n");
    18080426:	19d000ef          	jal	ra,18080dc2 <printk>
	}
	else
		printk("End init lpddr4, test ddr fail\r\n");

	
	boot_mode = get_boot_mode();
    1808042a:	3bb010ef          	jal	ra,18081fe4 <get_boot_mode>
//	boot_mode = 1;
	switch(boot_mode){
    1808042e:	4785                	li	a5,1
    18080430:	0cf50463          	beq	a0,a5,180804f8 <BootMain+0x2e8>
    18080434:	0aa7da63          	bge	a5,a0,180804e8 <BootMain+0x2d8>
    18080438:	4789                	li	a5,2
    1808043a:	0af50c63          	beq	a0,a5,180804f2 <BootMain+0x2e2>
    1808043e:	4791                	li	a5,4
    18080440:	00f51463          	bne	a0,a5,18080448 <BootMain+0x238>
    sys_cmd_proc();
    18080444:	05d010ef          	jal	ra,18081ca0 <sys_cmd_proc>
		 	break;

	 	default:
	 		break;		 
	}
	printk("\nbootloader.\n");
    18080448:	00012517          	auipc	a0,0x12
    1808044c:	9a850513          	addi	a0,a0,-1624 # 18091df0 <memcmp+0xd8>
    18080450:	173000ef          	jal	ra,18080dc2 <printk>
	asm volatile("sw %0, 0(%1)" : : "r" (val), "r" (addr));
    18080454:	020007b7          	lui	a5,0x2000
    18080458:	4705                	li	a4,1
    1808045a:	0791                	addi	a5,a5,4
    1808045c:	c398                	sw	a4,0(a5)
	writel(0x1, 0x2000004); 
}
    1808045e:	70a6                	ld	ra,104(sp)
    18080460:	7406                	ld	s0,96(sp)
    18080462:	64e6                	ld	s1,88(sp)
    18080464:	6946                	ld	s2,80(sp)
    18080466:	69a6                	ld	s3,72(sp)
    18080468:	6a06                	ld	s4,64(sp)
    1808046a:	7ae2                	ld	s5,56(sp)
    1808046c:	7b42                	ld	s6,48(sp)
    1808046e:	7ba2                	ld	s7,40(sp)
    18080470:	7c02                	ld	s8,32(sp)
    18080472:	6ce2                	ld	s9,24(sp)
    18080474:	6d42                	ld	s10,16(sp)
    18080476:	6da2                	ld	s11,8(sp)
    18080478:	6165                	addi	sp,sp,112
    1808047a:	8082                	ret
      regconfig_h_sim_pi(OMC_APB_BASE_ADDR,  OMC_SECURE_APB_BASE_ADDR,  PHY_APB_BASE_ADDR);
    1808047c:	11820637          	lui	a2,0x11820
    18080480:	110015b7          	lui	a1,0x11001
    18080484:	11000537          	lui	a0,0x11000
    18080488:	4a40e0ef          	jal	ra,1808e92c <regconfig_h_sim_pi>
      regconfig_h_sim_phy(OMC_APB_BASE_ADDR,  OMC_SECURE_APB_BASE_ADDR,  PHY_APB_BASE_ADDR);
    1808048c:	11820637          	lui	a2,0x11820
    18080490:	110015b7          	lui	a1,0x11001
    18080494:	11000537          	lui	a0,0x11000
    18080498:	7ac050ef          	jal	ra,18085c44 <regconfig_h_sim_phy>
    regconfig_pi_start(OMC_APB_BASE_ADDR,  OMC_SECURE_APB_BASE_ADDR,  PHY_APB_BASE_ADDR, ddr_num);
    1808049c:	4681                	li	a3,0
    1808049e:	11820637          	lui	a2,0x11820
    180804a2:	110015b7          	lui	a1,0x11001
    180804a6:	11000537          	lui	a0,0x11000
    180804aa:	6710f0ef          	jal	ra,1809031a <regconfig_pi_start>
      _SWITCH_CLOCK_clk_ddrc0_SOURCE_clk_ddrosc_div2_;
    180804ae:	1089a783          	lw	a5,264(s3)
    udelay(300);
    180804b2:	12c00513          	li	a0,300
      _SWITCH_CLOCK_clk_ddrc0_SOURCE_clk_ddrosc_div2_;
    180804b6:	2781                	sext.w	a5,a5
    180804b8:	0127f7b3          	and	a5,a5,s2
    180804bc:	10f9a423          	sw	a5,264(s3)
    udelay(300);
    180804c0:	532030ef          	jal	ra,180839f2 <udelay>
    apb_write(PHY_APB_BASE_ADDR + (0 +0 << 2), 0x01);//release dll_rst_n
    180804c4:	118207b7          	lui	a5,0x11820
    180804c8:	c384                	sw	s1,0(a5)
    udelay(300);
    180804ca:	12c00513          	li	a0,300
    180804ce:	524030ef          	jal	ra,180839f2 <udelay>
    orbit_boot(OMC_APB_BASE_ADDR,  OMC_SECURE_APB_BASE_ADDR,  PHY_APB_BASE_ADDR, ddr_num);
    180804d2:	4681                	li	a3,0
    180804d4:	11820637          	lui	a2,0x11820
    180804d8:	110015b7          	lui	a1,0x11001
    180804dc:	11000537          	lui	a0,0x11000
    180804e0:	50d100ef          	jal	ra,180911ec <orbit_boot>
{	
    180804e4:	8a22                	mv	s4,s0
    180804e6:	bbc5                	j	180802d6 <BootMain+0xc6>
	switch(boot_mode){
    180804e8:	f125                	bnez	a0,18080448 <BootMain+0x238>
		 	boot_from_spi(1);
    180804ea:	4505                	li	a0,1
    180804ec:	cebff0ef          	jal	ra,180801d6 <boot_from_spi>
			break;
    180804f0:	bfa1                	j	18080448 <BootMain+0x238>
		 	boot_from_sdio();
    180804f2:	cb9ff0ef          	jal	ra,180801aa <boot_from_sdio>
		 	break;
    180804f6:	bf89                	j	18080448 <BootMain+0x238>
		 	boot_from_spi(4);
    180804f8:	4511                	li	a0,4
    180804fa:	cddff0ef          	jal	ra,180801d6 <boot_from_spi>
		 	break;
    180804fe:	b7a9                	j	18080448 <BootMain+0x238>

0000000018080500 <handle_trap>:
   #define MCAUSE_CAUSE       0x00000000000003FFUL
#endif


uintptr_t handle_trap(uintptr_t mcause, uintptr_t epc)
{
    18080500:	1141                	addi	sp,sp,-16
    18080502:	e022                	sd	s0,0(sp)
	}
	else {
		rlSendString("unhandle trap.\n");
	}
#endif
	printk("trap mcause:0x%x epc:0x%x\n",mcause,epc);
    18080504:	862e                	mv	a2,a1
{
    18080506:	842e                	mv	s0,a1
	printk("trap mcause:0x%x epc:0x%x\n",mcause,epc);
    18080508:	85aa                	mv	a1,a0
    1808050a:	00012517          	auipc	a0,0x12
    1808050e:	8f650513          	addi	a0,a0,-1802 # 18091e00 <memcmp+0xe8>
{
    18080512:	e406                	sd	ra,8(sp)
	printk("trap mcause:0x%x epc:0x%x\n",mcause,epc);
    18080514:	0af000ef          	jal	ra,18080dc2 <printk>
	return epc;
}
    18080518:	8522                	mv	a0,s0
    1808051a:	60a2                	ld	ra,8(sp)
    1808051c:	6402                	ld	s0,0(sp)
    1808051e:	0141                	addi	sp,sp,16
    18080520:	8082                	ret

0000000018080522 <trap_entry>:

void trap_entry(void)
{
  unsigned long mcause = read_csr(mcause);
    18080522:	342025f3          	csrr	a1,mcause
  unsigned long mepc = read_csr(mepc);
    18080526:	34102673          	csrr	a2,mepc
	printk("trap mcause:0x%x epc:0x%x\n",mcause,epc);
    1808052a:	00012517          	auipc	a0,0x12
    1808052e:	8d650513          	addi	a0,a0,-1834 # 18091e00 <memcmp+0xe8>
    18080532:	0910006f          	j	18080dc2 <printk>

0000000018080536 <__serial_tstc>:
};

static unsigned int serial_in(int offset)
{
	offset <<= 2;
	return readl((volatile void *)(uart_base[uart_id] + offset));
    18080536:	00012797          	auipc	a5,0x12
    1808053a:	13a7e783          	lwu	a5,314(a5) # 18092670 <uart_id>
    1808053e:	00379713          	slli	a4,a5,0x3
    18080542:	00012797          	auipc	a5,0x12
    18080546:	93678793          	addi	a5,a5,-1738 # 18091e78 <uart_base>
    1808054a:	97ba                	add	a5,a5,a4
    1808054c:	6388                	ld	a0,0(a5)
    1808054e:	0551                	addi	a0,a0,20
	asm volatile("lw %0, 0(%1)" : "=r" (val) : "r" (addr));
    18080550:	4108                	lw	a0,0(a0)
}

int __serial_tstc()
{
	return ((serial_in(REG_LSR)) & (1 << 0));
}
    18080552:	8905                	andi	a0,a0,1
    18080554:	8082                	ret

0000000018080556 <serial_tstc>:
    18080556:	b7c5                	j	18080536 <__serial_tstc>

0000000018080558 <uart_init>:
void uart_init(int id)
{
	unsigned int divisor;
	unsigned char lcr_cache;

	switch(id)
    18080558:	4785                	li	a5,1
    1808055a:	2ef50363          	beq	a0,a5,18080840 <uart_init+0x2e8>
    1808055e:	10a7d963          	bge	a5,a0,18080670 <uart_init+0x118>
    18080562:	4789                	li	a5,2
    18080564:	1cf50363          	beq	a0,a5,1808072a <uart_init+0x1d2>
    18080568:	478d                	li	a5,3
    1808056a:	1af51f63          	bne	a0,a5,18080728 <uart_init+0x1d0>
		case 2:
			vic_uart2_reset_clk_gpio_misc_enable
			break;
			
		case 3:
			_ENABLE_CLOCK_clk_uart3_apb_;
    1808056e:	118006b7          	lui	a3,0x11800
    18080572:	2846a703          	lw	a4,644(a3) # 11800284 <__stack_size+0x117ffa84>
    18080576:	800007b7          	lui	a5,0x80000
    1808057a:	fff7c613          	not	a2,a5
    1808057e:	2701                	sext.w	a4,a4
    18080580:	80000837          	lui	a6,0x80000
    18080584:	8f71                	and	a4,a4,a2
    18080586:	01076733          	or	a4,a4,a6
    1808058a:	2701                	sext.w	a4,a4
    1808058c:	28e6a223          	sw	a4,644(a3)
			_ENABLE_CLOCK_clk_uart3_core_;
    18080590:	2886a783          	lw	a5,648(a3)

			_ASSERT_RESET_rstgen_rstn_uart3_apb_;
    18080594:	118405b7          	lui	a1,0x11840
    18080598:	fe000737          	lui	a4,0xfe000
			_ENABLE_CLOCK_clk_uart3_core_;
    1808059c:	2781                	sext.w	a5,a5
    1808059e:	8ff1                	and	a5,a5,a2
    180805a0:	0107e7b3          	or	a5,a5,a6
    180805a4:	2781                	sext.w	a5,a5
    180805a6:	28f6a423          	sw	a5,648(a3)
			_ASSERT_RESET_rstgen_rstn_uart3_apb_;
    180805aa:	459c                	lw	a5,8(a1)
    180805ac:	177d                	addi	a4,a4,-1
    180805ae:	020006b7          	lui	a3,0x2000
    180805b2:	2781                	sext.w	a5,a5
    180805b4:	8ff9                	and	a5,a5,a4
    180805b6:	02000737          	lui	a4,0x2000
    180805ba:	8fd9                	or	a5,a5,a4
    180805bc:	c59c                	sw	a5,8(a1)
    180805be:	11840737          	lui	a4,0x11840
    180805c2:	4f1c                	lw	a5,24(a4)
    180805c4:	2781                	sext.w	a5,a5
    180805c6:	8ff5                	and	a5,a5,a3
    180805c8:	ffed                	bnez	a5,180805c2 <uart_init+0x6a>
			_ASSERT_RESET_rstgen_rstn_uart3_core_;
    180805ca:	471c                	lw	a5,8(a4)
    180805cc:	fc0006b7          	lui	a3,0xfc000
    180805d0:	16fd                	addi	a3,a3,-1
    180805d2:	2781                	sext.w	a5,a5
    180805d4:	8ff5                	and	a5,a5,a3
    180805d6:	040006b7          	lui	a3,0x4000
    180805da:	8fd5                	or	a5,a5,a3
    180805dc:	c71c                	sw	a5,8(a4)
    180805de:	11840737          	lui	a4,0x11840
    180805e2:	4f1c                	lw	a5,24(a4)
    180805e4:	2781                	sext.w	a5,a5
    180805e6:	8ff5                	and	a5,a5,a3
    180805e8:	ffed                	bnez	a5,180805e2 <uart_init+0x8a>
			_CLEAR_RESET_rstgen_rstn_uart3_core_;
    180805ea:	471c                	lw	a5,8(a4)
    180805ec:	fc0006b7          	lui	a3,0xfc000
    180805f0:	16fd                	addi	a3,a3,-1
    180805f2:	2781                	sext.w	a5,a5
    180805f4:	8ff5                	and	a5,a5,a3
    180805f6:	c71c                	sw	a5,8(a4)
    180805f8:	040006b7          	lui	a3,0x4000
    180805fc:	11840737          	lui	a4,0x11840
    18080600:	4f1c                	lw	a5,24(a4)
    18080602:	2781                	sext.w	a5,a5
    18080604:	8ff5                	and	a5,a5,a3
    18080606:	dfed                	beqz	a5,18080600 <uart_init+0xa8>
			_CLEAR_RESET_rstgen_rstn_uart3_apb_;
    18080608:	471c                	lw	a5,8(a4)
    1808060a:	fe0006b7          	lui	a3,0xfe000
    1808060e:	16fd                	addi	a3,a3,-1
    18080610:	2781                	sext.w	a5,a5
    18080612:	8ff5                	and	a5,a5,a3
    18080614:	c71c                	sw	a5,8(a4)
    18080616:	118406b7          	lui	a3,0x11840
    1808061a:	02000737          	lui	a4,0x2000
    1808061e:	4e9c                	lw	a5,24(a3)
    18080620:	2781                	sext.w	a5,a5
    18080622:	8ff9                	and	a5,a5,a4
    18080624:	dfed                	beqz	a5,1808061e <uart_init+0xc6>
			SET_GPIO_14_dout_uart3_pad_sout;
    18080626:	119107b7          	lui	a5,0x11910
    1808062a:	0c07a703          	lw	a4,192(a5) # 119100c0 <__stack_size+0x1190f8c0>
    1808062e:	2701                	sext.w	a4,a4
    18080630:	f0077713          	andi	a4,a4,-256
    18080634:	08476713          	ori	a4,a4,132
    18080638:	0ce7a023          	sw	a4,192(a5)
			SET_GPIO_14_doen_LOW;
    1808063c:	0c47a703          	lw	a4,196(a5)
    18080640:	2701                	sext.w	a4,a4
    18080642:	f0077713          	andi	a4,a4,-256
    18080646:	0ce7a223          	sw	a4,196(a5)
			SET_GPIO_13_doen_HIGH;
    1808064a:	0bc7a703          	lw	a4,188(a5)
    1808064e:	2701                	sext.w	a4,a4
    18080650:	f0077713          	andi	a4,a4,-256
    18080654:	00176713          	ori	a4,a4,1
    18080658:	0ae7ae23          	sw	a4,188(a5)
			SET_GPIO_uart3_pad_sin(13);
    1808065c:	3747a703          	lw	a4,884(a5)
    18080660:	2701                	sext.w	a4,a4
    18080662:	f0077713          	andi	a4,a4,-256
    18080666:	00f76713          	ori	a4,a4,15
    1808066a:	36e7aa23          	sw	a4,884(a5)
			break;
    1808066e:	a449                	j	180808f0 <uart_init+0x398>
	switch(id)
    18080670:	e95d                	bnez	a0,18080726 <uart_init+0x1ce>
			vic_uart0_reset_clk_gpio_misc_enable;
    18080672:	118006b7          	lui	a3,0x11800
    18080676:	2486a703          	lw	a4,584(a3) # 11800248 <__stack_size+0x117ffa48>
    1808067a:	800007b7          	lui	a5,0x80000
    1808067e:	fff7c613          	not	a2,a5
    18080682:	2701                	sext.w	a4,a4
    18080684:	80000837          	lui	a6,0x80000
    18080688:	8f71                	and	a4,a4,a2
    1808068a:	01076733          	or	a4,a4,a6
    1808068e:	2701                	sext.w	a4,a4
    18080690:	24e6a423          	sw	a4,584(a3)
    18080694:	24c6a783          	lw	a5,588(a3)
    18080698:	118405b7          	lui	a1,0x11840
    1808069c:	777d                	lui	a4,0xfffff
    1808069e:	2781                	sext.w	a5,a5
    180806a0:	8ff1                	and	a5,a5,a2
    180806a2:	0107e7b3          	or	a5,a5,a6
    180806a6:	2781                	sext.w	a5,a5
    180806a8:	24f6a623          	sw	a5,588(a3)
    180806ac:	459c                	lw	a5,8(a1)
    180806ae:	7ff70713          	addi	a4,a4,2047 # fffffffffffff7ff <_sp+0xffffffffe7f6adf7>
    180806b2:	6685                	lui	a3,0x1
    180806b4:	2781                	sext.w	a5,a5
    180806b6:	8ff9                	and	a5,a5,a4
    180806b8:	c59c                	sw	a5,8(a1)
    180806ba:	11840737          	lui	a4,0x11840
    180806be:	80068693          	addi	a3,a3,-2048 # 800 <__stack_size>
    180806c2:	4f1c                	lw	a5,24(a4)
    180806c4:	2781                	sext.w	a5,a5
    180806c6:	8ff5                	and	a5,a5,a3
    180806c8:	dfed                	beqz	a5,180806c2 <uart_init+0x16a>
    180806ca:	471c                	lw	a5,8(a4)
    180806cc:	118406b7          	lui	a3,0x11840
    180806d0:	2781                	sext.w	a5,a5
    180806d2:	bff7f793          	andi	a5,a5,-1025
    180806d6:	c71c                	sw	a5,8(a4)
    180806d8:	4e9c                	lw	a5,24(a3)
    180806da:	4007f793          	andi	a5,a5,1024
    180806de:	dfed                	beqz	a5,180806d8 <uart_init+0x180>
    180806e0:	119107b7          	lui	a5,0x11910
    180806e4:	3587a703          	lw	a4,856(a5) # 11910358 <__stack_size+0x1190fb58>
    180806e8:	2701                	sext.w	a4,a4
    180806ea:	f0077713          	andi	a4,a4,-256
    180806ee:	00776713          	ori	a4,a4,7
    180806f2:	34e7ac23          	sw	a4,856(a5)
    180806f6:	5ff8                	lw	a4,124(a5)
    180806f8:	2701                	sext.w	a4,a4
    180806fa:	f0077713          	andi	a4,a4,-256
    180806fe:	00176713          	ori	a4,a4,1
    18080702:	dff8                	sw	a4,124(a5)
    18080704:	0807a703          	lw	a4,128(a5)
    18080708:	2701                	sext.w	a4,a4
    1808070a:	f0077713          	andi	a4,a4,-256
    1808070e:	07f76713          	ori	a4,a4,127
    18080712:	08e7a023          	sw	a4,128(a5)
    18080716:	0847a703          	lw	a4,132(a5)
    1808071a:	2701                	sext.w	a4,a4
    1808071c:	f0077713          	andi	a4,a4,-256
    18080720:	08e7a223          	sw	a4,132(a5)
			break;
    18080724:	a2f1                	j	180808f0 <uart_init+0x398>
    18080726:	8082                	ret
    18080728:	8082                	ret
			vic_uart2_reset_clk_gpio_misc_enable
    1808072a:	11800737          	lui	a4,0x11800
    1808072e:	27c72783          	lw	a5,636(a4) # 1180027c <__stack_size+0x117ffa7c>
    18080732:	118406b7          	lui	a3,0x11840
    18080736:	1786                	slli	a5,a5,0x21
    18080738:	9385                	srli	a5,a5,0x21
    1808073a:	26f72e23          	sw	a5,636(a4)
    1808073e:	469c                	lw	a5,8(a3)
    18080740:	ff800737          	lui	a4,0xff800
    18080744:	177d                	addi	a4,a4,-1
    18080746:	2781                	sext.w	a5,a5
    18080748:	8ff9                	and	a5,a5,a4
    1808074a:	00800737          	lui	a4,0x800
    1808074e:	8fd9                	or	a5,a5,a4
    18080750:	c69c                	sw	a5,8(a3)
    18080752:	11840737          	lui	a4,0x11840
    18080756:	008006b7          	lui	a3,0x800
    1808075a:	4f1c                	lw	a5,24(a4)
    1808075c:	2781                	sext.w	a5,a5
    1808075e:	8ff5                	and	a5,a5,a3
    18080760:	ffed                	bnez	a5,1808075a <uart_init+0x202>
    18080762:	471c                	lw	a5,8(a4)
    18080764:	ff0006b7          	lui	a3,0xff000
    18080768:	16fd                	addi	a3,a3,-1
    1808076a:	2781                	sext.w	a5,a5
    1808076c:	8ff5                	and	a5,a5,a3
    1808076e:	010006b7          	lui	a3,0x1000
    18080772:	8fd5                	or	a5,a5,a3
    18080774:	c71c                	sw	a5,8(a4)
    18080776:	118406b7          	lui	a3,0x11840
    1808077a:	01000737          	lui	a4,0x1000
    1808077e:	4e9c                	lw	a5,24(a3)
    18080780:	2781                	sext.w	a5,a5
    18080782:	8ff9                	and	a5,a5,a4
    18080784:	ffed                	bnez	a5,1808077e <uart_init+0x226>
    18080786:	11800637          	lui	a2,0x11800
    1808078a:	27c62703          	lw	a4,636(a2) # 1180027c <__stack_size+0x117ffa7c>
    1808078e:	800007b7          	lui	a5,0x80000
    18080792:	fff7c593          	not	a1,a5
    18080796:	2701                	sext.w	a4,a4
    18080798:	80000837          	lui	a6,0x80000
    1808079c:	8f6d                	and	a4,a4,a1
    1808079e:	01076733          	or	a4,a4,a6
    180807a2:	2701                	sext.w	a4,a4
    180807a4:	26e62e23          	sw	a4,636(a2)
    180807a8:	28062783          	lw	a5,640(a2)
    180807ac:	11840737          	lui	a4,0x11840
    180807b0:	2781                	sext.w	a5,a5
    180807b2:	8fed                	and	a5,a5,a1
    180807b4:	0107e7b3          	or	a5,a5,a6
    180807b8:	2781                	sext.w	a5,a5
    180807ba:	28f62023          	sw	a5,640(a2)
    180807be:	469c                	lw	a5,8(a3)
    180807c0:	ff0005b7          	lui	a1,0xff000
    180807c4:	15fd                	addi	a1,a1,-1
    180807c6:	2781                	sext.w	a5,a5
    180807c8:	8fed                	and	a5,a5,a1
    180807ca:	01000637          	lui	a2,0x1000
    180807ce:	c69c                	sw	a5,8(a3)
    180807d0:	4f1c                	lw	a5,24(a4)
    180807d2:	2781                	sext.w	a5,a5
    180807d4:	8ff1                	and	a5,a5,a2
    180807d6:	dfed                	beqz	a5,180807d0 <uart_init+0x278>
    180807d8:	471c                	lw	a5,8(a4)
    180807da:	ff8006b7          	lui	a3,0xff800
    180807de:	16fd                	addi	a3,a3,-1
    180807e0:	2781                	sext.w	a5,a5
    180807e2:	8ff5                	and	a5,a5,a3
    180807e4:	c71c                	sw	a5,8(a4)
    180807e6:	118406b7          	lui	a3,0x11840
    180807ea:	00800737          	lui	a4,0x800
    180807ee:	4e9c                	lw	a5,24(a3)
    180807f0:	2781                	sext.w	a5,a5
    180807f2:	8ff9                	and	a5,a5,a4
    180807f4:	dfed                	beqz	a5,180807ee <uart_init+0x296>
    180807f6:	119107b7          	lui	a5,0x11910
    180807fa:	3707a703          	lw	a4,880(a5) # 11910370 <__stack_size+0x1190fb70>
    180807fe:	2701                	sext.w	a4,a4
    18080800:	f0077713          	andi	a4,a4,-256
    18080804:	00f76713          	ori	a4,a4,15
    18080808:	36e7a823          	sw	a4,880(a5)
    1808080c:	0bc7a703          	lw	a4,188(a5)
    18080810:	2701                	sext.w	a4,a4
    18080812:	f0077713          	andi	a4,a4,-256
    18080816:	00176713          	ori	a4,a4,1
    1808081a:	0ae7ae23          	sw	a4,188(a5)
    1808081e:	0c07a703          	lw	a4,192(a5)
    18080822:	2701                	sext.w	a4,a4
    18080824:	f0077713          	andi	a4,a4,-256
    18080828:	08376713          	ori	a4,a4,131
    1808082c:	0ce7a023          	sw	a4,192(a5)
    18080830:	0c47a703          	lw	a4,196(a5)
    18080834:	2701                	sext.w	a4,a4
    18080836:	f0077713          	andi	a4,a4,-256
    1808083a:	0ce7a223          	sw	a4,196(a5)
			break;
    1808083e:	a84d                	j	180808f0 <uart_init+0x398>
			vic_uart1_reset_clk_gpio_misc_enable;
    18080840:	118006b7          	lui	a3,0x11800
    18080844:	2506a703          	lw	a4,592(a3) # 11800250 <__stack_size+0x117ffa50>
    18080848:	800007b7          	lui	a5,0x80000
    1808084c:	fff7c613          	not	a2,a5
    18080850:	2701                	sext.w	a4,a4
    18080852:	80000837          	lui	a6,0x80000
    18080856:	8f71                	and	a4,a4,a2
    18080858:	01076733          	or	a4,a4,a6
    1808085c:	2701                	sext.w	a4,a4
    1808085e:	24e6a823          	sw	a4,592(a3)
    18080862:	2546a783          	lw	a5,596(a3)
    18080866:	118405b7          	lui	a1,0x11840
    1808086a:	11840737          	lui	a4,0x11840
    1808086e:	2781                	sext.w	a5,a5
    18080870:	8ff1                	and	a5,a5,a2
    18080872:	0107e7b3          	or	a5,a5,a6
    18080876:	2781                	sext.w	a5,a5
    18080878:	24f6aa23          	sw	a5,596(a3)
    1808087c:	459c                	lw	a5,8(a1)
    1808087e:	76f9                	lui	a3,0xffffe
    18080880:	16fd                	addi	a3,a3,-1
    18080882:	2781                	sext.w	a5,a5
    18080884:	8ff5                	and	a5,a5,a3
    18080886:	c59c                	sw	a5,8(a1)
    18080888:	6689                	lui	a3,0x2
    1808088a:	4f1c                	lw	a5,24(a4)
    1808088c:	2781                	sext.w	a5,a5
    1808088e:	8ff5                	and	a5,a5,a3
    18080890:	dfed                	beqz	a5,1808088a <uart_init+0x332>
    18080892:	471c                	lw	a5,8(a4)
    18080894:	76fd                	lui	a3,0xfffff
    18080896:	16fd                	addi	a3,a3,-1
    18080898:	2781                	sext.w	a5,a5
    1808089a:	8ff5                	and	a5,a5,a3
    1808089c:	c71c                	sw	a5,8(a4)
    1808089e:	118406b7          	lui	a3,0x11840
    180808a2:	6705                	lui	a4,0x1
    180808a4:	4e9c                	lw	a5,24(a3)
    180808a6:	2781                	sext.w	a5,a5
    180808a8:	8ff9                	and	a5,a5,a4
    180808aa:	dfed                	beqz	a5,180808a4 <uart_init+0x34c>
    180808ac:	119107b7          	lui	a5,0x11910
    180808b0:	0807a703          	lw	a4,128(a5) # 11910080 <__stack_size+0x1190f880>
    180808b4:	2701                	sext.w	a4,a4
    180808b6:	f0077713          	andi	a4,a4,-256
    180808ba:	08076713          	ori	a4,a4,128
    180808be:	08e7a023          	sw	a4,128(a5)
    180808c2:	35c7a703          	lw	a4,860(a5)
    180808c6:	2701                	sext.w	a4,a4
    180808c8:	f0077713          	andi	a4,a4,-256
    180808cc:	00776713          	ori	a4,a4,7
    180808d0:	34e7ae23          	sw	a4,860(a5)
    180808d4:	5ff8                	lw	a4,124(a5)
    180808d6:	2701                	sext.w	a4,a4
    180808d8:	f0077713          	andi	a4,a4,-256
    180808dc:	00176713          	ori	a4,a4,1
    180808e0:	dff8                	sw	a4,124(a5)
    180808e2:	0847a703          	lw	a4,132(a5)
    180808e6:	2701                	sext.w	a4,a4
    180808e8:	f0077713          	andi	a4,a4,-256
    180808ec:	08e7a223          	sw	a4,132(a5)
			
		default:
			return;
	}

 	uart_id = id;
    180808f0:	2501                	sext.w	a0,a0
	return readl((volatile void *)(uart_base[uart_id] + offset));
    180808f2:	02051793          	slli	a5,a0,0x20
    180808f6:	01d7d713          	srli	a4,a5,0x1d
    180808fa:	00011797          	auipc	a5,0x11
    180808fe:	57e78793          	addi	a5,a5,1406 # 18091e78 <uart_base>
    18080902:	97ba                	add	a5,a5,a4
    18080904:	639c                	ld	a5,0(a5)
 	uart_id = id;
    18080906:	00012717          	auipc	a4,0x12
    1808090a:	d6a72523          	sw	a0,-662(a4) # 18092670 <uart_id>
	return readl((volatile void *)(uart_base[uart_id] + offset));
    1808090e:	00c78713          	addi	a4,a5,12
    18080912:	4314                	lw	a3,0(a4)
	
	divisor = (UART_CLK / UART_BUADRATE_32MCLK_115200) >> 4;

	lcr_cache = serial_in(REG_LCR);
	serial_out(REG_LCR, (LCR_DLAB | lcr_cache));
    18080914:	0ff6f613          	andi	a2,a3,255
	writel(value, (volatile void *)(uart_base[uart_id] + offset));
    18080918:	08066613          	ori	a2,a2,128
	asm volatile("sw %0, 0(%1)" : : "r" (val), "r" (addr));
    1808091c:	c310                	sw	a2,0(a4)
    1808091e:	03600613          	li	a2,54
    18080922:	c390                	sw	a2,0(a5)
    18080924:	4601                	li	a2,0
    18080926:	00478593          	addi	a1,a5,4
    1808092a:	c190                	sw	a2,0(a1)
    1808092c:	0ff6f693          	andi	a3,a3,255
    18080930:	c314                	sw	a3,0(a4)
    18080932:	468d                	li	a3,3
    18080934:	c314                	sw	a3,0(a4)
    18080936:	01078713          	addi	a4,a5,16
    1808093a:	c310                	sw	a2,0(a4)
    1808093c:	08f00713          	li	a4,143
    18080940:	07a1                	addi	a5,a5,8
    18080942:	c398                	sw	a4,0(a5)
    18080944:	c190                	sw	a2,0(a1)
	 * Clear TX and RX FIFO
	 */
	serial_out(REG_FCR, (FCR_FIFO | FCR_MODE1 | /*FCR_FIFO_1*/FCR_FIFO_8 | FCR_RCVRCLR | FCR_XMITCLR));
	
	serial_out(REG_IER, 0);//dis the ser interrupt
}
    18080946:	8082                	ret

0000000018080948 <_putc>:
	return readl((volatile void *)(uart_base[uart_id] + offset));
    18080948:	00012797          	auipc	a5,0x12
    1808094c:	d287e783          	lwu	a5,-728(a5) # 18092670 <uart_id>
    18080950:	00379713          	slli	a4,a5,0x3
    18080954:	00011797          	auipc	a5,0x11
    18080958:	52478793          	addi	a5,a5,1316 # 18091e78 <uart_base>
    1808095c:	97ba                	add	a5,a5,a4
    1808095e:	6394                	ld	a3,0(a5)
    18080960:	01468713          	addi	a4,a3,20 # 11840014 <__stack_size+0x1183f814>
	asm volatile("lw %0, 0(%1)" : "=r" (val) : "r" (addr));
    18080964:	431c                	lw	a5,0(a4)

int _putc(char c) {
	do
	{}while((serial_in(REG_LSR) & LSR_THRE) == 0);
    18080966:	0207f793          	andi	a5,a5,32
    1808096a:	dfed                	beqz	a5,18080964 <_putc+0x1c>
	asm volatile("sw %0, 0(%1)" : : "r" (val), "r" (addr));
    1808096c:	c288                	sw	a0,0(a3)

	serial_out(REG_THR, c);
	return 0;
}
    1808096e:	4501                	li	a0,0
    18080970:	8082                	ret

0000000018080972 <rlSendString>:

void rlSendString(char *s)
{
	while (*s){
    18080972:	00054683          	lbu	a3,0(a0)
    18080976:	ca85                	beqz	a3,180809a6 <rlSendString+0x34>
    18080978:	00012797          	auipc	a5,0x12
    1808097c:	cf87e783          	lwu	a5,-776(a5) # 18092670 <uart_id>
    18080980:	00379713          	slli	a4,a5,0x3
    18080984:	00011797          	auipc	a5,0x11
    18080988:	4f478793          	addi	a5,a5,1268 # 18091e78 <uart_base>
    1808098c:	97ba                	add	a5,a5,a4
    1808098e:	6390                	ld	a2,0(a5)
    18080990:	01460713          	addi	a4,a2,20 # 1000014 <__stack_size+0xfff814>
		_putc(*s++);
    18080994:	0505                	addi	a0,a0,1
	asm volatile("lw %0, 0(%1)" : "=r" (val) : "r" (addr));
    18080996:	431c                	lw	a5,0(a4)
	{}while((serial_in(REG_LSR) & LSR_THRE) == 0);
    18080998:	0207f793          	andi	a5,a5,32
    1808099c:	dfed                	beqz	a5,18080996 <rlSendString+0x24>
	asm volatile("sw %0, 0(%1)" : : "r" (val), "r" (addr));
    1808099e:	c214                	sw	a3,0(a2)
	while (*s){
    180809a0:	00054683          	lbu	a3,0(a0)
    180809a4:	fae5                	bnez	a3,18080994 <rlSendString+0x22>
	}
}
    180809a6:	8082                	ret

00000000180809a8 <CtrlBreak>:

int CtrlBreak( void )
{
    180809a8:	00012797          	auipc	a5,0x12
    180809ac:	cc87e783          	lwu	a5,-824(a5) # 18092670 <uart_id>
    180809b0:	00379713          	slli	a4,a5,0x3
    180809b4:	00011797          	auipc	a5,0x11
    180809b8:	4c478793          	addi	a5,a5,1220 # 18091e78 <uart_base>
    180809bc:	97ba                	add	a5,a5,a4
    180809be:	6394                	ld	a3,0(a5)
	int retflag;

	do{
		retflag	= serial_getc();
		if( retflag == 0x03 ){
    180809c0:	460d                	li	a2,3
    180809c2:	01468713          	addi	a4,a3,20
	asm volatile("lw %0, 0(%1)" : "=r" (val) : "r" (addr));
    180809c6:	431c                	lw	a5,0(a4)
	return retflag;
}
int serial_getc()
{	
	/* Wait here until the the FIFO is not full */
    while (!(serial_in(REG_LSR) & (1 << 0))){};
    180809c8:	8b85                	andi	a5,a5,1
    180809ca:	dff5                	beqz	a5,180809c6 <CtrlBreak+0x1e>
    180809cc:	4288                	lw	a0,0(a3)

	return serial_in(REG_RDR);
    180809ce:	2501                	sext.w	a0,a0
		if( retflag == 0x03 ){
    180809d0:	00c50363          	beq	a0,a2,180809d6 <CtrlBreak+0x2e>
	}while( retflag );
    180809d4:	f96d                	bnez	a0,180809c6 <CtrlBreak+0x1e>
}
    180809d6:	8082                	ret

00000000180809d8 <serial_getc>:
	return readl((volatile void *)(uart_base[uart_id] + offset));
    180809d8:	00012797          	auipc	a5,0x12
    180809dc:	c987e783          	lwu	a5,-872(a5) # 18092670 <uart_id>
    180809e0:	00379713          	slli	a4,a5,0x3
    180809e4:	00011797          	auipc	a5,0x11
    180809e8:	49478793          	addi	a5,a5,1172 # 18091e78 <uart_base>
    180809ec:	97ba                	add	a5,a5,a4
    180809ee:	6388                	ld	a0,0(a5)
    180809f0:	01450713          	addi	a4,a0,20
    180809f4:	431c                	lw	a5,0(a4)
    while (!(serial_in(REG_LSR) & (1 << 0))){};
    180809f6:	8b85                	andi	a5,a5,1
    180809f8:	dff5                	beqz	a5,180809f4 <serial_getc+0x1c>
    180809fa:	4108                	lw	a0,0(a0)
}
    180809fc:	2501                	sext.w	a0,a0
    180809fe:	8082                	ret

0000000018080a00 <serial_gets>:
void serial_gets(char *pstr)
{
	unsigned char c;
	unsigned char *pstrorg;
	
	pstrorg = (unsigned char *) pstr;
    18080a00:	00012797          	auipc	a5,0x12
    18080a04:	c707e783          	lwu	a5,-912(a5) # 18092670 <uart_id>
    18080a08:	00011e97          	auipc	t4,0x11
    18080a0c:	470e8e93          	addi	t4,t4,1136 # 18091e78 <uart_base>
    18080a10:	078e                	slli	a5,a5,0x3
    18080a12:	97f6                	add	a5,a5,t4
    18080a14:	6390                	ld	a2,0(a5)

	while ((c = serial_getc()) != '\r')
    18080a16:	88aa                	mv	a7,a0
    18080a18:	4335                	li	t1,13
    18080a1a:	01460713          	addi	a4,a2,20
	{
		if (c == '\b'){
    18080a1e:	4e21                	li	t3,8
    18080a20:	431c                	lw	a5,0(a4)
    while (!(serial_in(REG_LSR) & (1 << 0))){};
    18080a22:	8b85                	andi	a5,a5,1
    18080a24:	dff5                	beqz	a5,18080a20 <serial_gets+0x20>
    18080a26:	420c                	lw	a1,0(a2)
    18080a28:	0005879b          	sext.w	a5,a1
	while ((c = serial_getc()) != '\r')
    18080a2c:	0ff7f693          	andi	a3,a5,255
    18080a30:	06668263          	beq	a3,t1,18080a94 <serial_gets+0x94>
		if (c == '\b'){
    18080a34:	03c69a63          	bne	a3,t3,18080a68 <serial_gets+0x68>
			if ((int) *pstrorg < (int) *pstr){
    18080a38:	00054583          	lbu	a1,0(a0)
    18080a3c:	0008c783          	lbu	a5,0(a7)
    18080a40:	fef5f0e3          	bgeu	a1,a5,18080a20 <serial_gets+0x20>
    18080a44:	02000813          	li	a6,32
    18080a48:	00011597          	auipc	a1,0x11
    18080a4c:	46058593          	addi	a1,a1,1120 # 18091ea8 <digits.1739+0x10>
		_putc(*s++);
    18080a50:	0585                	addi	a1,a1,1
    18080a52:	431c                	lw	a5,0(a4)
	{}while((serial_in(REG_LSR) & LSR_THRE) == 0);
    18080a54:	0207f793          	andi	a5,a5,32
    18080a58:	dfed                	beqz	a5,18080a52 <serial_gets+0x52>
	asm volatile("sw %0, 0(%1)" : : "r" (val), "r" (addr));
    18080a5a:	c214                	sw	a3,0(a2)
	while (*s){
    18080a5c:	02080a63          	beqz	a6,18080a90 <serial_gets+0x90>
    18080a60:	86c2                	mv	a3,a6
    18080a62:	0015c803          	lbu	a6,1(a1)
    18080a66:	b7ed                	j	18080a50 <serial_gets+0x50>
				rlSendString("\b \b");
				pstr--;
			}
		}else{
			*pstr++ = c;
    18080a68:	00f88023          	sb	a5,0(a7)
	return readl((volatile void *)(uart_base[uart_id] + offset));
    18080a6c:	00012797          	auipc	a5,0x12
    18080a70:	c047e783          	lwu	a5,-1020(a5) # 18092670 <uart_id>
    18080a74:	078e                	slli	a5,a5,0x3
    18080a76:	97f6                	add	a5,a5,t4
    18080a78:	6390                	ld	a2,0(a5)
			*pstr++ = c;
    18080a7a:	0885                	addi	a7,a7,1
	return readl((volatile void *)(uart_base[uart_id] + offset));
    18080a7c:	01460713          	addi	a4,a2,20
	asm volatile("lw %0, 0(%1)" : "=r" (val) : "r" (addr));
    18080a80:	431c                	lw	a5,0(a4)
	{}while((serial_in(REG_LSR) & LSR_THRE) == 0);
    18080a82:	0207f793          	andi	a5,a5,32
    18080a86:	dfed                	beqz	a5,18080a80 <serial_gets+0x80>
	asm volatile("sw %0, 0(%1)" : : "r" (val), "r" (addr));
    18080a88:	0ff5f593          	andi	a1,a1,255
    18080a8c:	c20c                	sw	a1,0(a2)
	return 0;
    18080a8e:	bf49                	j	18080a20 <serial_gets+0x20>
				pstr--;
    18080a90:	18fd                	addi	a7,a7,-1
    18080a92:	b779                	j	18080a20 <serial_gets+0x20>
			_putc(c);
		}
	}

	*pstr = '\0';
    18080a94:	00088023          	sb	zero,0(a7)
	while (*s){
    18080a98:	00012797          	auipc	a5,0x12
    18080a9c:	bd87e783          	lwu	a5,-1064(a5) # 18092670 <uart_id>
    18080aa0:	078e                	slli	a5,a5,0x3
    18080aa2:	9ebe                	add	t4,t4,a5
    18080aa4:	000eb503          	ld	a0,0(t4)
	return readl((volatile void *)(uart_base[uart_id] + offset));
    18080aa8:	45a9                	li	a1,10
    18080aaa:	00012617          	auipc	a2,0x12
    18080aae:	8be60613          	addi	a2,a2,-1858 # 18092368 <dwmci_ops+0x40>
    18080ab2:	01450713          	addi	a4,a0,20
		_putc(*s++);
    18080ab6:	0605                	addi	a2,a2,1
	asm volatile("lw %0, 0(%1)" : "=r" (val) : "r" (addr));
    18080ab8:	431c                	lw	a5,0(a4)
	{}while((serial_in(REG_LSR) & LSR_THRE) == 0);
    18080aba:	0207f793          	andi	a5,a5,32
    18080abe:	dfed                	beqz	a5,18080ab8 <serial_gets+0xb8>
	asm volatile("sw %0, 0(%1)" : : "r" (val), "r" (addr));
    18080ac0:	c114                	sw	a3,0(a0)
	while (*s){
    18080ac2:	c589                	beqz	a1,18080acc <serial_gets+0xcc>
    18080ac4:	86ae                	mv	a3,a1
    18080ac6:	00164583          	lbu	a1,1(a2)
    18080aca:	b7f5                	j	18080ab6 <serial_gets+0xb6>

	rlSendString("\r\n");
		
}
    18080acc:	8082                	ret

0000000018080ace <_puts>:
    18080ace:	b555                	j	18080972 <rlSendString>

0000000018080ad0 <print_ubyte_hex>:
	return readl((volatile void *)(uart_base[uart_id] + offset));
    18080ad0:	00012717          	auipc	a4,0x12
    18080ad4:	ba076703          	lwu	a4,-1120(a4) # 18092670 <uart_id>
	static const char digits[16] = "0123456789ABCDEF";
	char tmp[2];
	int dig=0;

	dig = ((bval&0xf0)>>4);
	tmp[0] = digits[dig];
    18080ad8:	00011797          	auipc	a5,0x11
    18080adc:	3a078793          	addi	a5,a5,928 # 18091e78 <uart_base>
	return readl((volatile void *)(uart_base[uart_id] + offset));
    18080ae0:	070e                	slli	a4,a4,0x3
	tmp[0] = digits[dig];
    18080ae2:	00455693          	srli	a3,a0,0x4
	return readl((volatile void *)(uart_base[uart_id] + offset));
    18080ae6:	973e                	add	a4,a4,a5
	dig = (bval&0x0f);
	tmp[1] = digits[dig];
    18080ae8:	893d                	andi	a0,a0,15
	tmp[0] = digits[dig];
    18080aea:	00d78633          	add	a2,a5,a3
	tmp[1] = digits[dig];
    18080aee:	97aa                	add	a5,a5,a0
	return readl((volatile void *)(uart_base[uart_id] + offset));
    18080af0:	6314                	ld	a3,0(a4)
	tmp[0] = digits[dig];
    18080af2:	02064583          	lbu	a1,32(a2)
	tmp[1] = digits[dig];
    18080af6:	0207c603          	lbu	a2,32(a5)
	return readl((volatile void *)(uart_base[uart_id] + offset));
    18080afa:	01468713          	addi	a4,a3,20
	asm volatile("lw %0, 0(%1)" : "=r" (val) : "r" (addr));
    18080afe:	431c                	lw	a5,0(a4)
	{}while((serial_in(REG_LSR) & LSR_THRE) == 0);
    18080b00:	0207f793          	andi	a5,a5,32
    18080b04:	dfed                	beqz	a5,18080afe <print_ubyte_hex+0x2e>
	asm volatile("sw %0, 0(%1)" : : "r" (val), "r" (addr));
    18080b06:	c28c                	sw	a1,0(a3)
	asm volatile("lw %0, 0(%1)" : "=r" (val) : "r" (addr));
    18080b08:	431c                	lw	a5,0(a4)
    18080b0a:	0207f793          	andi	a5,a5,32
    18080b0e:	dfed                	beqz	a5,18080b08 <print_ubyte_hex+0x38>
	asm volatile("sw %0, 0(%1)" : : "r" (val), "r" (addr));
    18080b10:	c290                	sw	a2,0(a3)
	_putc(tmp[0]);
	_putc(tmp[1]);
}
    18080b12:	8082                	ret

0000000018080b14 <serial_nowait_getc>:
	return readl((volatile void *)(uart_base[uart_id] + offset));
    18080b14:	00012797          	auipc	a5,0x12
    18080b18:	b5c7e783          	lwu	a5,-1188(a5) # 18092670 <uart_id>
    18080b1c:	00379713          	slli	a4,a5,0x3
    18080b20:	00011797          	auipc	a5,0x11
    18080b24:	35878793          	addi	a5,a5,856 # 18091e78 <uart_base>
    18080b28:	97ba                	add	a5,a5,a4
    18080b2a:	6398                	ld	a4,0(a5)
    18080b2c:	01470793          	addi	a5,a4,20
	asm volatile("lw %0, 0(%1)" : "=r" (val) : "r" (addr));
    18080b30:	439c                	lw	a5,0(a5)
int serial_nowait_getc()
{
	unsigned int status;

	status = serial_in(REG_LSR);
	if (!(status & (1 << 0))) {
    18080b32:	8b85                	andi	a5,a5,1
    18080b34:	4501                	li	a0,0
    18080b36:	c781                	beqz	a5,18080b3e <serial_nowait_getc+0x2a>
    18080b38:	4318                	lw	a4,0(a4)
	return val;
    18080b3a:	0007051b          	sext.w	a0,a4
		goto out;
	}
	status = serial_in(REG_RDR);
out:
	return status;
}
    18080b3e:	8082                	ret

0000000018080b40 <vnprintf>:
int vnprintf(char* out, size_t n, const char* s, va_list vl)
{
  bool format = false;
  bool longarg = false;
  size_t pos = 0;
  for( ; *s; s++)
    18080b40:	00064783          	lbu	a5,0(a2)
    18080b44:	20078663          	beqz	a5,18080d50 <vnprintf+0x210>
{
    18080b48:	7179                	addi	sp,sp,-48
    18080b4a:	f422                	sd	s0,40(sp)
    18080b4c:	f026                	sd	s1,32(sp)
    18080b4e:	ec4a                	sd	s2,24(sp)
    18080b50:	e84e                	sd	s3,16(sp)
    18080b52:	e452                	sd	s4,8(sp)
    18080b54:	e056                	sd	s5,0(sp)
  size_t pos = 0;
    18080b56:	4701                	li	a4,0
  bool longarg = false;
    18080b58:	4901                	li	s2,0
  bool format = false;
    18080b5a:	4801                	li	a6,0
        }
        default:
          break;
      }
    }
    else if(*s == '%')
    18080b5c:	02500293          	li	t0,37
      switch(*s)
    18080b60:	4fd5                	li	t6,21
    18080b62:	00011e97          	auipc	t4,0x11
    18080b66:	2bee8e93          	addi	t4,t4,702 # 18091e20 <memcmp+0x108>
          for (long nn = num; nn /= 10; digits++)
    18080b6a:	4329                	li	t1,10
            if (++pos < n) out[pos-1] = '-';
    18080b6c:	02d00493          	li	s1,45
            if (++pos < n) out[pos-1] = (d < 10 ? '0'+d : 'a'+d-10);
    18080b70:	4f25                	li	t5,9
          for(int i = 2*(longarg ? sizeof(long) : sizeof(int))-1; i >= 0; i--) {
    18080b72:	5e7d                	li	t3,-1
          if (++pos < n) out[pos-1] = 'x';
    18080b74:	07800413          	li	s0,120
          if (++pos < n) out[pos-1] = '0';
    18080b78:	03000393          	li	t2,48
    if(format)
    18080b7c:	0e080b63          	beqz	a6,18080c72 <vnprintf+0x132>
      switch(*s)
    18080b80:	f9d7879b          	addiw	a5,a5,-99
    18080b84:	0ff7f793          	andi	a5,a5,255
    18080b88:	0cffef63          	bltu	t6,a5,18080c66 <vnprintf+0x126>
    18080b8c:	078a                	slli	a5,a5,0x2
    18080b8e:	97f6                	add	a5,a5,t4
    18080b90:	439c                	lw	a5,0(a5)
    18080b92:	97f6                	add	a5,a5,t4
    18080b94:	8782                	jr	a5
          long num = longarg ? va_arg(vl, long) : va_arg(vl, int);
    18080b96:	00868793          	addi	a5,a3,8
    18080b9a:	14090f63          	beqz	s2,18080cf8 <vnprintf+0x1b8>
    18080b9e:	0006ba03          	ld	s4,0(a3)
          for(int i = 2*(longarg ? sizeof(long) : sizeof(int))-1; i >= 0; i--) {
    18080ba2:	4abd                	li	s5,15
          long num = longarg ? va_arg(vl, long) : va_arg(vl, int);
    18080ba4:	86be                	mv	a3,a5
    18080ba6:	a041                	j	18080c26 <vnprintf+0xe6>
          const char* s2 = va_arg(vl, const char*);
    18080ba8:	0006b883          	ld	a7,0(a3)
    18080bac:	06a1                	addi	a3,a3,8
          while (*s2) {
    18080bae:	0008c803          	lbu	a6,0(a7)
    18080bb2:	14080063          	beqz	a6,18080cf2 <vnprintf+0x1b2>
    18080bb6:	87ba                	mv	a5,a4
            if (++pos < n)
    18080bb8:	0785                	addi	a5,a5,1
    18080bba:	00b7f663          	bgeu	a5,a1,18080bc6 <vnprintf+0x86>
              out[pos-1] = *s2;
    18080bbe:	00f50933          	add	s2,a0,a5
    18080bc2:	ff090fa3          	sb	a6,-1(s2)
          while (*s2) {
    18080bc6:	40e78833          	sub	a6,a5,a4
    18080bca:	9846                	add	a6,a6,a7
    18080bcc:	00084803          	lbu	a6,0(a6) # ffffffff80000000 <_sp+0xffffffff67f6b5f8>
    18080bd0:	fe0814e3          	bnez	a6,18080bb8 <vnprintf+0x78>
  for( ; *s; s++)
    18080bd4:	0605                	addi	a2,a2,1
            if (++pos < n)
    18080bd6:	873e                	mv	a4,a5
  for( ; *s; s++)
    18080bd8:	00064783          	lbu	a5,0(a2)
          longarg = false;
    18080bdc:	4901                	li	s2,0
  for( ; *s; s++)
    18080bde:	ffd9                	bnez	a5,18080b7c <vnprintf+0x3c>
    18080be0:	0007079b          	sext.w	a5,a4
      format = true;
    else
      if (++pos < n) out[pos-1] = *s;
  }
  if (pos < n)
    18080be4:	12b76363          	bltu	a4,a1,18080d0a <vnprintf+0x1ca>
    out[pos] = 0;
  else if (n)
    18080be8:	c589                	beqz	a1,18080bf2 <vnprintf+0xb2>
    out[n-1] = 0;
    18080bea:	00b50733          	add	a4,a0,a1
    18080bee:	fe070fa3          	sb	zero,-1(a4)
  return pos;
}
    18080bf2:	7422                	ld	s0,40(sp)
    18080bf4:	7482                	ld	s1,32(sp)
    18080bf6:	6962                	ld	s2,24(sp)
    18080bf8:	69c2                	ld	s3,16(sp)
    18080bfa:	6a22                	ld	s4,8(sp)
    18080bfc:	6a82                	ld	s5,0(sp)
    18080bfe:	853e                	mv	a0,a5
    18080c00:	6145                	addi	sp,sp,48
    18080c02:	8082                	ret
          if (++pos < n) out[pos-1] = '0';
    18080c04:	00170793          	addi	a5,a4,1
    18080c08:	00b7f663          	bgeu	a5,a1,18080c14 <vnprintf+0xd4>
    18080c0c:	00e50833          	add	a6,a0,a4
    18080c10:	00780023          	sb	t2,0(a6)
          if (++pos < n) out[pos-1] = 'x';
    18080c14:	0709                	addi	a4,a4,2
    18080c16:	00868813          	addi	a6,a3,8
    18080c1a:	0eb76c63          	bltu	a4,a1,18080d12 <vnprintf+0x1d2>
          long num = longarg ? va_arg(vl, long) : va_arg(vl, int);
    18080c1e:	0006ba03          	ld	s4,0(a3)
          for(int i = 2*(longarg ? sizeof(long) : sizeof(int))-1; i >= 0; i--) {
    18080c22:	4abd                	li	s5,15
          long num = longarg ? va_arg(vl, long) : va_arg(vl, int);
    18080c24:	86c2                	mv	a3,a6
          for(int i = 2*(longarg ? sizeof(long) : sizeof(int))-1; i >= 0; i--) {
    18080c26:	8856                	mv	a6,s5
    18080c28:	87ba                	mv	a5,a4
            if (++pos < n) out[pos-1] = (d < 10 ? '0'+d : 'a'+d-10);
    18080c2a:	0785                	addi	a5,a5,1
    18080c2c:	02b7f463          	bgeu	a5,a1,18080c54 <vnprintf+0x114>
            int d = (num >> (4*i)) & 0xF;
    18080c30:	0028189b          	slliw	a7,a6,0x2
    18080c34:	411a58b3          	sra	a7,s4,a7
    18080c38:	00f8f893          	andi	a7,a7,15
            if (++pos < n) out[pos-1] = (d < 10 ? '0'+d : 'a'+d-10);
    18080c3c:	0ff8f993          	andi	s3,a7,255
    18080c40:	05798913          	addi	s2,s3,87
    18080c44:	011f4463          	blt	t5,a7,18080c4c <vnprintf+0x10c>
    18080c48:	03098913          	addi	s2,s3,48
    18080c4c:	00f508b3          	add	a7,a0,a5
    18080c50:	ff288fa3          	sb	s2,-1(a7)
          for(int i = 2*(longarg ? sizeof(long) : sizeof(int))-1; i >= 0; i--) {
    18080c54:	387d                	addiw	a6,a6,-1
    18080c56:	fdc81ae3          	bne	a6,t3,18080c2a <vnprintf+0xea>
    18080c5a:	0705                	addi	a4,a4,1
    18080c5c:	9756                	add	a4,a4,s5
          longarg = false;
    18080c5e:	4901                	li	s2,0
          format = false;
    18080c60:	4801                	li	a6,0
    18080c62:	a011                	j	18080c66 <vnprintf+0x126>
          longarg = true;
    18080c64:	8942                	mv	s2,a6
  for( ; *s; s++)
    18080c66:	0605                	addi	a2,a2,1
    18080c68:	00064783          	lbu	a5,0(a2)
    18080c6c:	dbb5                	beqz	a5,18080be0 <vnprintf+0xa0>
    if(format)
    18080c6e:	f00819e3          	bnez	a6,18080b80 <vnprintf+0x40>
    else if(*s == '%')
    18080c72:	08578863          	beq	a5,t0,18080d02 <vnprintf+0x1c2>
      if (++pos < n) out[pos-1] = *s;
    18080c76:	00170893          	addi	a7,a4,1
    18080c7a:	08b8f663          	bgeu	a7,a1,18080d06 <vnprintf+0x1c6>
    18080c7e:	972a                	add	a4,a4,a0
    18080c80:	00f70023          	sb	a5,0(a4)
    18080c84:	8746                	mv	a4,a7
    18080c86:	b7c5                	j	18080c66 <vnprintf+0x126>
          long num = longarg ? va_arg(vl, long) : va_arg(vl, int);
    18080c88:	00868993          	addi	s3,a3,8
    18080c8c:	08090763          	beqz	s2,18080d1a <vnprintf+0x1da>
    18080c90:	0006b803          	ld	a6,0(a3)
          if (num < 0) {
    18080c94:	08084763          	bltz	a6,18080d22 <vnprintf+0x1e2>
          for (long nn = num; nn /= 10; digits++)
    18080c98:	026847b3          	div	a5,a6,t1
    18080c9c:	c3f9                	beqz	a5,18080d62 <vnprintf+0x222>
          long digits = 1;
    18080c9e:	4685                	li	a3,1
          for (long nn = num; nn /= 10; digits++)
    18080ca0:	0267c7b3          	div	a5,a5,t1
    18080ca4:	0685                	addi	a3,a3,1
    18080ca6:	ffed                	bnez	a5,18080ca0 <vnprintf+0x160>
          for (int i = digits-1; i >= 0; i--) {
    18080ca8:	fff6879b          	addiw	a5,a3,-1
    18080cac:	88b6                	mv	a7,a3
    18080cae:	0207c863          	bltz	a5,18080cde <vnprintf+0x19e>
    18080cb2:	00170a13          	addi	s4,a4,1
            if (pos + i + 1 < n) out[pos + i] = '0' + (num % 10);
    18080cb6:	00fa06b3          	add	a3,s4,a5
    18080cba:	00b6fb63          	bgeu	a3,a1,18080cd0 <vnprintf+0x190>
    18080cbe:	026866b3          	rem	a3,a6,t1
    18080cc2:	00f70933          	add	s2,a4,a5
    18080cc6:	992a                	add	s2,s2,a0
    18080cc8:	0306869b          	addiw	a3,a3,48
    18080ccc:	00d90023          	sb	a3,0(s2)
            num /= 10;
    18080cd0:	17fd                	addi	a5,a5,-1
          for (int i = digits-1; i >= 0; i--) {
    18080cd2:	02079693          	slli	a3,a5,0x20
            num /= 10;
    18080cd6:	02684833          	div	a6,a6,t1
          for (int i = digits-1; i >= 0; i--) {
    18080cda:	fc06dee3          	bgez	a3,18080cb6 <vnprintf+0x176>
          pos += digits;
    18080cde:	9746                	add	a4,a4,a7
          break;
    18080ce0:	86ce                	mv	a3,s3
          longarg = false;
    18080ce2:	4901                	li	s2,0
          format = false;
    18080ce4:	4801                	li	a6,0
          break;
    18080ce6:	b741                	j	18080c66 <vnprintf+0x126>
          if (++pos < n) out[pos-1] = (char)va_arg(vl,int);
    18080ce8:	00170793          	addi	a5,a4,1
    18080cec:	04b7e663          	bltu	a5,a1,18080d38 <vnprintf+0x1f8>
    18080cf0:	873e                	mv	a4,a5
          longarg = false;
    18080cf2:	4901                	li	s2,0
          format = false;
    18080cf4:	4801                	li	a6,0
    18080cf6:	bf85                	j	18080c66 <vnprintf+0x126>
          long num = longarg ? va_arg(vl, long) : va_arg(vl, int);
    18080cf8:	0006aa03          	lw	s4,0(a3)
          for(int i = 2*(longarg ? sizeof(long) : sizeof(int))-1; i >= 0; i--) {
    18080cfc:	4a9d                	li	s5,7
          long num = longarg ? va_arg(vl, long) : va_arg(vl, int);
    18080cfe:	86be                	mv	a3,a5
    18080d00:	b71d                	j	18080c26 <vnprintf+0xe6>
      format = true;
    18080d02:	4805                	li	a6,1
    18080d04:	b78d                	j	18080c66 <vnprintf+0x126>
    18080d06:	8746                	mv	a4,a7
    18080d08:	bfb9                	j	18080c66 <vnprintf+0x126>
    out[pos] = 0;
    18080d0a:	972a                	add	a4,a4,a0
    18080d0c:	00070023          	sb	zero,0(a4)
    18080d10:	b5cd                	j	18080bf2 <vnprintf+0xb2>
          if (++pos < n) out[pos-1] = 'x';
    18080d12:	97aa                	add	a5,a5,a0
    18080d14:	00878023          	sb	s0,0(a5)
    18080d18:	b719                	j	18080c1e <vnprintf+0xde>
          long num = longarg ? va_arg(vl, long) : va_arg(vl, int);
    18080d1a:	0006a803          	lw	a6,0(a3)
          if (num < 0) {
    18080d1e:	f6085de3          	bgez	a6,18080c98 <vnprintf+0x158>
            if (++pos < n) out[pos-1] = '-';
    18080d22:	00170793          	addi	a5,a4,1
            num = -num;
    18080d26:	41000833          	neg	a6,a6
            if (++pos < n) out[pos-1] = '-';
    18080d2a:	02b7f163          	bgeu	a5,a1,18080d4c <vnprintf+0x20c>
    18080d2e:	972a                	add	a4,a4,a0
    18080d30:	00970023          	sb	s1,0(a4)
    18080d34:	873e                	mv	a4,a5
    18080d36:	b78d                	j	18080c98 <vnprintf+0x158>
          if (++pos < n) out[pos-1] = (char)va_arg(vl,int);
    18080d38:	0006a803          	lw	a6,0(a3)
    18080d3c:	972a                	add	a4,a4,a0
    18080d3e:	06a1                	addi	a3,a3,8
    18080d40:	01070023          	sb	a6,0(a4)
          longarg = false;
    18080d44:	4901                	li	s2,0
          if (++pos < n) out[pos-1] = (char)va_arg(vl,int);
    18080d46:	873e                	mv	a4,a5
          format = false;
    18080d48:	4801                	li	a6,0
    18080d4a:	bf31                	j	18080c66 <vnprintf+0x126>
    18080d4c:	873e                	mv	a4,a5
    18080d4e:	b7a9                	j	18080c98 <vnprintf+0x158>
  size_t pos = 0;
    18080d50:	4701                	li	a4,0
  for( ; *s; s++)
    18080d52:	4781                	li	a5,0
  if (pos < n)
    18080d54:	00b77a63          	bgeu	a4,a1,18080d68 <vnprintf+0x228>
    out[pos] = 0;
    18080d58:	972a                	add	a4,a4,a0
    18080d5a:	00070023          	sb	zero,0(a4)
}
    18080d5e:	853e                	mv	a0,a5
    18080d60:	8082                	ret
          for (long nn = num; nn /= 10; digits++)
    18080d62:	4885                	li	a7,1
          for (int i = digits-1; i >= 0; i--) {
    18080d64:	4781                	li	a5,0
    18080d66:	b7b1                	j	18080cb2 <vnprintf+0x172>
  else if (n)
    18080d68:	d9fd                	beqz	a1,18080d5e <vnprintf+0x21e>
    out[n-1] = 0;
    18080d6a:	00b50733          	add	a4,a0,a1
    18080d6e:	fe070fa3          	sb	zero,-1(a4)
    18080d72:	b7f5                	j	18080d5e <vnprintf+0x21e>

0000000018080d74 <vprintk>:

static void vprintk(const char* s, va_list vl)
{
    18080d74:	716d                	addi	sp,sp,-272
  char out[256]; 
  int res = vnprintf(out, sizeof(out), s, vl);
    18080d76:	862a                	mv	a2,a0
    18080d78:	86ae                	mv	a3,a1
    18080d7a:	850a                	mv	a0,sp
    18080d7c:	10000593          	li	a1,256
{
    18080d80:	e606                	sd	ra,264(sp)
  int res = vnprintf(out, sizeof(out), s, vl);
    18080d82:	dbfff0ef          	jal	ra,18080b40 <vnprintf>
  while (*s != '\0'){
    18080d86:	00014603          	lbu	a2,0(sp)
    18080d8a:	ca0d                	beqz	a2,18080dbc <vprintk+0x48>
    18080d8c:	00012797          	auipc	a5,0x12
    18080d90:	8e47e783          	lwu	a5,-1820(a5) # 18092670 <uart_id>
    18080d94:	00379713          	slli	a4,a5,0x3
    18080d98:	00011797          	auipc	a5,0x11
    18080d9c:	0e078793          	addi	a5,a5,224 # 18091e78 <uart_base>
    18080da0:	97ba                	add	a5,a5,a4
    18080da2:	638c                	ld	a1,0(a5)
	return readl((volatile void *)(uart_base[uart_id] + offset));
    18080da4:	868a                	mv	a3,sp
    18080da6:	01458713          	addi	a4,a1,20
    _putc(*s++);
    18080daa:	0685                	addi	a3,a3,1
	asm volatile("lw %0, 0(%1)" : "=r" (val) : "r" (addr));
    18080dac:	431c                	lw	a5,0(a4)
	{}while((serial_in(REG_LSR) & LSR_THRE) == 0);
    18080dae:	0207f793          	andi	a5,a5,32
    18080db2:	dfed                	beqz	a5,18080dac <vprintk+0x38>
	asm volatile("sw %0, 0(%1)" : : "r" (val), "r" (addr));
    18080db4:	c190                	sw	a2,0(a1)
  while (*s != '\0'){
    18080db6:	0006c603          	lbu	a2,0(a3)
    18080dba:	fa65                	bnez	a2,18080daa <vprintk+0x36>
  _puts(out);
}
    18080dbc:	60b2                	ld	ra,264(sp)
    18080dbe:	6151                	addi	sp,sp,272
    18080dc0:	8082                	ret

0000000018080dc2 <printk>:

void printk(const char* s, ...)
{
    18080dc2:	711d                	addi	sp,sp,-96
  va_list vl;
  va_start(vl, s);
    18080dc4:	02810313          	addi	t1,sp,40
{
    18080dc8:	f42e                	sd	a1,40(sp)

  vprintk(s, vl);
    18080dca:	859a                	mv	a1,t1
{
    18080dcc:	ec06                	sd	ra,24(sp)
    18080dce:	f832                	sd	a2,48(sp)
    18080dd0:	fc36                	sd	a3,56(sp)
    18080dd2:	e0ba                	sd	a4,64(sp)
    18080dd4:	e4be                	sd	a5,72(sp)
    18080dd6:	e8c2                	sd	a6,80(sp)
    18080dd8:	ecc6                	sd	a7,88(sp)
  va_start(vl, s);
    18080dda:	e41a                	sd	t1,8(sp)
  vprintk(s, vl);
    18080ddc:	f99ff0ef          	jal	ra,18080d74 <vprintk>

  va_end(vl);
}
    18080de0:	60e2                	ld	ra,24(sp)
    18080de2:	6125                	addi	sp,sp,96
    18080de4:	8082                	ret

0000000018080de6 <CmdHelpProc>:
}



int CmdHelpProc( void * Context , int argc , char ** argv )
{
    18080de6:	7179                	addi	sp,sp,-48
	int		item;
	rlSendString( "\r\n Command list :\r\n " );
    18080de8:	00011517          	auipc	a0,0x11
    18080dec:	15050513          	addi	a0,a0,336 # 18091f38 <CmdHandle+0x88>
{
    18080df0:	e84a                	sd	s2,16(sp)
    18080df2:	f406                	sd	ra,40(sp)
    18080df4:	f022                	sd	s0,32(sp)
    18080df6:	ec26                	sd	s1,24(sp)
    18080df8:	e44e                	sd	s3,8(sp)
	for( item = 0x01 ; item < gcurCmd ; item++ ){
    18080dfa:	00012917          	auipc	s2,0x12
    18080dfe:	86290913          	addi	s2,s2,-1950 # 1809265c <gcurCmd>
	rlSendString( "\r\n Command list :\r\n " );
    18080e02:	b71ff0ef          	jal	ra,18080972 <rlSendString>
	for( item = 0x01 ; item < gcurCmd ; item++ ){
    18080e06:	00092703          	lw	a4,0(s2)
    18080e0a:	4785                	li	a5,1
    18080e0c:	02e7dd63          	bge	a5,a4,18080e46 <CmdHelpProc+0x60>
    18080e10:	00011497          	auipc	s1,0x11
    18080e14:	0a048493          	addi	s1,s1,160 # 18091eb0 <CmdHandle>
    18080e18:	00011517          	auipc	a0,0x11
    18080e1c:	11850513          	addi	a0,a0,280 # 18091f30 <CmdHandle+0x80>
    18080e20:	4405                	li	s0,1
		rlSendString( CmdHandle[item].cmdCode );
		rlSendString( " \r\n" );
    18080e22:	00011997          	auipc	s3,0x11
    18080e26:	12e98993          	addi	s3,s3,302 # 18091f50 <CmdHandle+0xa0>
		rlSendString( CmdHandle[item].cmdCode );
    18080e2a:	b49ff0ef          	jal	ra,18080972 <rlSendString>
		rlSendString( " \r\n" );
    18080e2e:	854e                	mv	a0,s3
    18080e30:	b43ff0ef          	jal	ra,18080972 <rlSendString>
	for( item = 0x01 ; item < gcurCmd ; item++ ){
    18080e34:	00092783          	lw	a5,0(s2)
    18080e38:	2405                	addiw	s0,s0,1
    18080e3a:	02048493          	addi	s1,s1,32
    18080e3e:	00f45463          	bge	s0,a5,18080e46 <CmdHelpProc+0x60>
    18080e42:	7088                	ld	a0,32(s1)
    18080e44:	b7dd                	j	18080e2a <CmdHelpProc+0x44>
	}
	rlSendString( "rb/rh/rl addr\r\n" );
    18080e46:	00011517          	auipc	a0,0x11
    18080e4a:	11250513          	addi	a0,a0,274 # 18091f58 <CmdHandle+0xa8>
    18080e4e:	b25ff0ef          	jal	ra,18080972 <rlSendString>
	rlSendString( "wb/wh/wl addr val\r\n" );
    18080e52:	00011517          	auipc	a0,0x11
    18080e56:	11650513          	addi	a0,a0,278 # 18091f68 <CmdHandle+0xb8>
    18080e5a:	b19ff0ef          	jal	ra,18080972 <rlSendString>
	return 0x01;
}
    18080e5e:	70a2                	ld	ra,40(sp)
    18080e60:	7402                	ld	s0,32(sp)
    18080e62:	64e2                	ld	s1,24(sp)
    18080e64:	6942                	ld	s2,16(sp)
    18080e66:	69a2                	ld	s3,8(sp)
    18080e68:	4505                	li	a0,1
    18080e6a:	6145                	addi	sp,sp,48
    18080e6c:	8082                	ret

0000000018080e6e <StdInit>:
	hdl->ver			= 0x100;
    18080e6e:	040007b7          	lui	a5,0x4000
    18080e72:	10078793          	addi	a5,a5,256 # 4000100 <__stack_size+0x3fff900>
	hdl->startbuf		= ( unsigned  char * )hdl->buf + 0x80;
    18080e76:	28050713          	addi	a4,a0,640
	hdl->ver			= 0x100;
    18080e7a:	c11c                	sw	a5,0(a0)
	hdl->maxlen		= 0x3FF;
    18080e7c:	3ff00793          	li	a5,1023
    18080e80:	f55c                	sd	a5,168(a0)
	hdl->startbuf		= ( unsigned  char * )hdl->buf + 0x80;
    18080e82:	e958                	sd	a4,144(a0)
	hdl->curbuf		= hdl->startbuf;
    18080e84:	f958                	sd	a4,176(a0)
	hdl->curitem		= 0x000000;
    18080e86:	0a053023          	sd	zero,160(a0)
	hdl->inputflag	= 0x00000000;
    18080e8a:	08053c23          	sd	zero,152(a0)
}
    18080e8e:	8082                	ret

0000000018080e90 <CmdInit>:
	StdInit( StdHdl );
    18080e90:	00011797          	auipc	a5,0x11
    18080e94:	7d078793          	addi	a5,a5,2000 # 18092660 <StdHdl>
    18080e98:	639c                	ld	a5,0(a5)
	hdl->ver			= 0x100;
    18080e9a:	04000737          	lui	a4,0x4000
    18080e9e:	10070713          	addi	a4,a4,256 # 4000100 <__stack_size+0x3fff900>
	hdl->startbuf		= ( unsigned  char * )hdl->buf + 0x80;
    18080ea2:	28078693          	addi	a3,a5,640
	hdl->ver			= 0x100;
    18080ea6:	c398                	sw	a4,0(a5)
	hdl->maxlen		= 0x3FF;
    18080ea8:	3ff00713          	li	a4,1023
    18080eac:	f7d8                	sd	a4,168(a5)
	hdl->startbuf		= ( unsigned  char * )hdl->buf + 0x80;
    18080eae:	ebd4                	sd	a3,144(a5)
	hdl->curbuf		= hdl->startbuf;
    18080eb0:	fbd4                	sd	a3,176(a5)
	hdl->curitem		= 0x000000;
    18080eb2:	0a07b023          	sd	zero,160(a5)
	hdl->inputflag	= 0x00000000;
    18080eb6:	0807bc23          	sd	zero,152(a5)
}
    18080eba:	8082                	ret

0000000018080ebc <ReadString>:
{
    18080ebc:	7139                	addi	sp,sp,-64
    18080ebe:	f822                	sd	s0,48(sp)
    18080ec0:	f426                	sd	s1,40(sp)
    18080ec2:	f04a                	sd	s2,32(sp)
    18080ec4:	ec4e                	sd	s3,24(sp)
    18080ec6:	e852                	sd	s4,16(sp)
    18080ec8:	e456                	sd	s5,8(sp)
    18080eca:	e05a                	sd	s6,0(sp)
    18080ecc:	fc06                	sd	ra,56(sp)
    18080ece:	8b2a                	mv	s6,a0
	length--;
    18080ed0:	fff5849b          	addiw	s1,a1,-1
	curitem	= 0x00000000;
    18080ed4:	4401                	li	s0,0
		if(( retflag == '\r' ) || ( retflag == '\n' )){
    18080ed6:	4935                	li	s2,13
    18080ed8:	49a9                	li	s3,10
		if( retflag == '\b' ){
    18080eda:	4a21                	li	s4,8
			if( retflag >= 0x20 ){
    18080edc:	4afd                	li	s5,31
		retflag	= serial_getc( );
    18080ede:	afbff0ef          	jal	ra,180809d8 <serial_getc>
		if( curitem < length ){
    18080ee2:	00945463          	bge	s0,s1,18080eea <ReadString+0x2e>
			if( retflag >= 0x20 ){
    18080ee6:	02aac563          	blt	s5,a0,18080f10 <ReadString+0x54>
		if(( retflag == '\r' ) || ( retflag == '\n' )){
    18080eea:	03250d63          	beq	a0,s2,18080f24 <ReadString+0x68>
    18080eee:	03350b63          	beq	a0,s3,18080f24 <ReadString+0x68>
		if( retflag == '\b' ){
    18080ef2:	ff4516e3          	bne	a0,s4,18080ede <ReadString+0x22>
				_putc( '\b' );
    18080ef6:	4521                	li	a0,8
			if( curitem > 0x00 ){
    18080ef8:	d07d                	beqz	s0,18080ede <ReadString+0x22>
				_putc( '\b' );
    18080efa:	a4fff0ef          	jal	ra,18080948 <_putc>
				_putc( ' ' );
    18080efe:	02000513          	li	a0,32
    18080f02:	a47ff0ef          	jal	ra,18080948 <_putc>
				_putc( '\b' );
    18080f06:	4521                	li	a0,8
				curitem--;
    18080f08:	347d                	addiw	s0,s0,-1
				_putc( '\b' );
    18080f0a:	a3fff0ef          	jal	ra,18080948 <_putc>
    18080f0e:	bfc1                	j	18080ede <ReadString+0x22>
				buf[curitem] = ( unsigned char )retflag;
    18080f10:	008b07b3          	add	a5,s6,s0
    18080f14:	00a78023          	sb	a0,0(a5)
				_putc(( char ) buf[curitem] );
    18080f18:	0ff57513          	andi	a0,a0,255
    18080f1c:	a2dff0ef          	jal	ra,18080948 <_putc>
				curitem++;
    18080f20:	2405                	addiw	s0,s0,1
				continue;
    18080f22:	bf75                	j	18080ede <ReadString+0x22>
			buf[curitem]	= 0x00;
    18080f24:	9b22                	add	s6,s6,s0
    18080f26:	000b0023          	sb	zero,0(s6) # 5a5a6000 <_sp+0x425115f8>
			_putc( '\r' );
    18080f2a:	4535                	li	a0,13
    18080f2c:	a1dff0ef          	jal	ra,18080948 <_putc>
			_putc( '\n' );
    18080f30:	4529                	li	a0,10
    18080f32:	a17ff0ef          	jal	ra,18080948 <_putc>
}
    18080f36:	8522                	mv	a0,s0
    18080f38:	70e2                	ld	ra,56(sp)
    18080f3a:	7442                	ld	s0,48(sp)
    18080f3c:	74a2                	ld	s1,40(sp)
    18080f3e:	7902                	ld	s2,32(sp)
    18080f40:	69e2                	ld	s3,24(sp)
    18080f42:	6a42                	ld	s4,16(sp)
    18080f44:	6aa2                	ld	s5,8(sp)
    18080f46:	6b02                	ld	s6,0(sp)
    18080f48:	6121                	addi	sp,sp,64
    18080f4a:	8082                	ret

0000000018080f4c <CmdString>:
	while(( *srccmd == *basecmd ) && ( *srccmd != 0x00 )){
    18080f4c:	00054703          	lbu	a4,0(a0)
    18080f50:	0005c783          	lbu	a5,0(a1)
    18080f54:	00e79b63          	bne	a5,a4,18080f6a <CmdString+0x1e>
    18080f58:	cf81                	beqz	a5,18080f70 <CmdString+0x24>
		srccmd++;
    18080f5a:	0505                	addi	a0,a0,1
		basecmd++;
    18080f5c:	0585                	addi	a1,a1,1
	while(( *srccmd == *basecmd ) && ( *srccmd != 0x00 )){
    18080f5e:	0005c783          	lbu	a5,0(a1)
    18080f62:	00054703          	lbu	a4,0(a0)
    18080f66:	fee789e3          	beq	a5,a4,18080f58 <CmdString+0xc>
		return 0x01;
    18080f6a:	00173513          	seqz	a0,a4
    18080f6e:	8082                	ret
    18080f70:	4505                	li	a0,1
}
    18080f72:	8082                	ret

0000000018080f74 <piteCmdLine>:
{
    18080f74:	87aa                	mv	a5,a0
		while(( *curRead ) == ' ' ){
    18080f76:	02000693          	li	a3,32
	curItem	= 0x00000000;
    18080f7a:	4501                	li	a0,0
	while( curItem < maxArgc ){
    18080f7c:	00c04463          	bgtz	a2,18080f84 <piteCmdLine+0x10>
    18080f80:	a82d                	j	18080fba <piteCmdLine+0x46>
			curRead++;
    18080f82:	0785                	addi	a5,a5,1
		while(( *curRead ) == ' ' ){
    18080f84:	0007c703          	lbu	a4,0(a5)
    18080f88:	fed70de3          	beq	a4,a3,18080f82 <piteCmdLine+0xe>
		pargv[curItem]	= curRead;
    18080f8c:	e19c                	sd	a5,0(a1)
		if(( *curRead ) == 0x00 ){
    18080f8e:	0007c703          	lbu	a4,0(a5)
    18080f92:	c31d                	beqz	a4,18080fb8 <piteCmdLine+0x44>
		while((( *curRead ) != ' ' ) && (( *curRead ) != 0x00 )){
    18080f94:	00d71463          	bne	a4,a3,18080f9c <piteCmdLine+0x28>
    18080f98:	a039                	j	18080fa6 <piteCmdLine+0x32>
    18080f9a:	cf11                	beqz	a4,18080fb6 <piteCmdLine+0x42>
			curRead++;
    18080f9c:	0785                	addi	a5,a5,1
		while((( *curRead ) != ' ' ) && (( *curRead ) != 0x00 )){
    18080f9e:	0007c703          	lbu	a4,0(a5)
    18080fa2:	fed71ce3          	bne	a4,a3,18080f9a <piteCmdLine+0x26>
			*curRead	= 0x00;
    18080fa6:	00078023          	sb	zero,0(a5)
		curItem++;
    18080faa:	2505                	addiw	a0,a0,1
			curRead++;
    18080fac:	0785                	addi	a5,a5,1
			continue;
    18080fae:	05a1                	addi	a1,a1,8
	while( curItem < maxArgc ){
    18080fb0:	fca61ae3          	bne	a2,a0,18080f84 <piteCmdLine+0x10>
    18080fb4:	8082                	ret
		curItem++;
    18080fb6:	2505                	addiw	a0,a0,1
}
    18080fb8:	8082                	ret
    18080fba:	8082                	ret

0000000018080fbc <CmdErrorProc>:

int CmdErrorProc( void * Context , int argc , char ** argv )
{
    18080fbc:	7179                	addi	sp,sp,-48
    18080fbe:	ec26                	sd	s1,24(sp)
	int	i;
	rlSendString( " msg : error cmd ->\r\n" );
    18080fc0:	00011517          	auipc	a0,0x11
    18080fc4:	fc050513          	addi	a0,a0,-64 # 18091f80 <CmdHandle+0xd0>
{
    18080fc8:	84ae                	mv	s1,a1
    18080fca:	f022                	sd	s0,32(sp)
    18080fcc:	f406                	sd	ra,40(sp)
    18080fce:	e84a                	sd	s2,16(sp)
    18080fd0:	e44e                	sd	s3,8(sp)
    18080fd2:	8432                	mv	s0,a2
	rlSendString( " msg : error cmd ->\r\n" );
    18080fd4:	99fff0ef          	jal	ra,18080972 <rlSendString>
	for( i = 0x00 ; i < argc ; i++ ){
    18080fd8:	02905c63          	blez	s1,18081010 <CmdErrorProc+0x54>
    18080fdc:	34fd                	addiw	s1,s1,-1
    18080fde:	1482                	slli	s1,s1,0x20
    18080fe0:	80f5                	srli	s1,s1,0x1d
    18080fe2:	00840793          	addi	a5,s0,8
    18080fe6:	94be                	add	s1,s1,a5
		rlSendString( "\t" );
    18080fe8:	00011997          	auipc	s3,0x11
    18080fec:	fb098993          	addi	s3,s3,-80 # 18091f98 <CmdHandle+0xe8>
		rlSendString( argv[i] );
		rlSendString( "\r\n" );
    18080ff0:	00011917          	auipc	s2,0x11
    18080ff4:	37890913          	addi	s2,s2,888 # 18092368 <dwmci_ops+0x40>
		rlSendString( "\t" );
    18080ff8:	854e                	mv	a0,s3
    18080ffa:	979ff0ef          	jal	ra,18080972 <rlSendString>
		rlSendString( argv[i] );
    18080ffe:	6008                	ld	a0,0(s0)
    18081000:	0421                	addi	s0,s0,8
    18081002:	971ff0ef          	jal	ra,18080972 <rlSendString>
		rlSendString( "\r\n" );
    18081006:	854a                	mv	a0,s2
    18081008:	96bff0ef          	jal	ra,18080972 <rlSendString>
	for( i = 0x00 ; i < argc ; i++ ){
    1808100c:	fe9416e3          	bne	s0,s1,18080ff8 <CmdErrorProc+0x3c>
	}
	rlSendString( "\r\n" );
    18081010:	00011517          	auipc	a0,0x11
    18081014:	35850513          	addi	a0,a0,856 # 18092368 <dwmci_ops+0x40>
    18081018:	95bff0ef          	jal	ra,18080972 <rlSendString>
	
	return 0x01;
}
    1808101c:	70a2                	ld	ra,40(sp)
    1808101e:	7402                	ld	s0,32(sp)
    18081020:	64e2                	ld	s1,24(sp)
    18081022:	6942                	ld	s2,16(sp)
    18081024:	69a2                	ld	s3,8(sp)
    18081026:	4505                	li	a0,1
    18081028:	6145                	addi	sp,sp,48
    1808102a:	8082                	ret

000000001808102c <U2Hex>:
//file:length <= 0x08
int U2Hex( unsigned long value , char * buf , int length )
{
 	int   temp;
 	int   retflag;
	buf[0x00] 	= 0x00;
    1808102c:	00058023          	sb	zero,0(a1)
 	buf[length] 	= 0x00;
    18081030:	00c587b3          	add	a5,a1,a2
    18081034:	00078023          	sb	zero,0(a5)

 	retflag  = 0x00;
 	while( length > 0x00 ){
    18081038:	04c05763          	blez	a2,18081086 <U2Hex+0x5a>
    1808103c:	fff6069b          	addiw	a3,a2,-1
    18081040:	ffe60793          	addi	a5,a2,-2
    18081044:	1682                	slli	a3,a3,0x20
    18081046:	97ae                	add	a5,a5,a1
    18081048:	fff60713          	addi	a4,a2,-1
    1808104c:	9281                	srli	a3,a3,0x20
    1808104e:	95ba                	add	a1,a1,a4
    18081050:	40d786b3          	sub	a3,a5,a3
  		temp 	= 	value & 0x0F;
  		value 	>>= 0x04;
  		length--;
  		retflag++;
  		if( temp < 0x0A ){
    18081054:	48a5                	li	a7,9
    18081056:	a031                	j	18081062 <U2Hex+0x36>
   			buf[length] 	= ( char )temp + '0';
   			continue;
  		}
  		buf[length] = ( char )temp + ('A' - 0x0A );
    18081058:	01058023          	sb	a6,0(a1)
    1808105c:	15fd                	addi	a1,a1,-1
 	while( length > 0x00 ){
    1808105e:	02b68263          	beq	a3,a1,18081082 <U2Hex+0x56>
  		temp 	= 	value & 0x0F;
    18081062:	00f57793          	andi	a5,a0,15
  		value 	>>= 0x04;
    18081066:	0ff7f713          	andi	a4,a5,255
  		buf[length] = ( char )temp + ('A' - 0x0A );
    1808106a:	0377081b          	addiw	a6,a4,55
  		value 	>>= 0x04;
    1808106e:	8111                	srli	a0,a0,0x4
  		if( temp < 0x0A ){
    18081070:	fef8c4e3          	blt	a7,a5,18081058 <U2Hex+0x2c>
   			buf[length] 	= ( char )temp + '0';
    18081074:	0307071b          	addiw	a4,a4,48
    18081078:	00e58023          	sb	a4,0(a1)
   			continue;
    1808107c:	15fd                	addi	a1,a1,-1
 	while( length > 0x00 ){
    1808107e:	feb692e3          	bne	a3,a1,18081062 <U2Hex+0x36>
 	}
 	return retflag;
}
    18081082:	8532                	mv	a0,a2
    18081084:	8082                	ret
 	retflag  = 0x00;
    18081086:	4601                	li	a2,0
}
    18081088:	8532                	mv	a0,a2
    1808108a:	8082                	ret

000000001808108c <A2Int>:
 	int 	retflag;
 	int 	flag;
 	
 	retflag 	= 0x00;
 	do{
  		if(( buf[0x00] == '0' ) && (( buf[0x01] == 'x' ) || ( buf[0x01] == 'X' ))){
    1808108c:	00054703          	lbu	a4,0(a0)
    18081090:	03000693          	li	a3,48
{
    18081094:	87aa                	mv	a5,a0
  		if(( buf[0x00] == '0' ) && (( buf[0x01] == 'x' ) || ( buf[0x01] == 'X' ))){
    18081096:	06d70a63          	beq	a4,a3,1808110a <A2Int+0x7e>
   			}
   			break;
  		}

  		flag = 0x01;
  		if( *buf == '+' ){
    1808109a:	02b00693          	li	a3,43
    1808109e:	02d70563          	beq	a4,a3,180810c8 <A2Int+0x3c>
   			buf++;
  		}else{
   			if( *buf == '-' ){
    180810a2:	02d00693          	li	a3,45
  		flag = 0x01;
    180810a6:	4585                	li	a1,1
   			if( *buf == '-' ){
    180810a8:	02d71563          	bne	a4,a3,180810d2 <A2Int+0x46>
    				flag = -1;
    				buf++;
    180810ac:	00154703          	lbu	a4,1(a0)
    180810b0:	00150793          	addi	a5,a0,1
    				flag = -1;
    180810b4:	55fd                	li	a1,-1
   			}
  		}
 
  		while( 0x01 ){
   			if(( *buf >= '0' ) && ( *buf <= '9' )){
    180810b6:	fd07069b          	addiw	a3,a4,-48
    180810ba:	0ff6f613          	andi	a2,a3,255
    180810be:	4725                	li	a4,9
    180810c0:	4501                	li	a0,0
    180810c2:	02c77063          	bgeu	a4,a2,180810e2 <A2Int+0x56>
   			retflag 	*= flag;
   			break;
  		}
 	}while( 0x00 );
 	return retflag;
}
    180810c6:	8082                	ret
   			buf++;
    180810c8:	00154703          	lbu	a4,1(a0)
  		flag = 0x01;
    180810cc:	4585                	li	a1,1
   			buf++;
    180810ce:	00150793          	addi	a5,a0,1
   			if(( *buf >= '0' ) && ( *buf <= '9' )){
    180810d2:	fd07069b          	addiw	a3,a4,-48
    180810d6:	0ff6f613          	andi	a2,a3,255
    180810da:	4725                	li	a4,9
    180810dc:	4501                	li	a0,0
    180810de:	fec764e3          	bltu	a4,a2,180810c6 <A2Int+0x3a>
  		flag = 0x01;
    180810e2:	4501                	li	a0,0
   			if(( *buf >= '0' ) && ( *buf <= '9' )){
    180810e4:	4825                	li	a6,9
    				buf++;
    180810e6:	0785                	addi	a5,a5,1
   			if(( *buf >= '0' ) && ( *buf <= '9' )){
    180810e8:	0007c703          	lbu	a4,0(a5)
    				retflag 	*= 	0x0A;
    180810ec:	0025161b          	slliw	a2,a0,0x2
    180810f0:	9d31                	addw	a0,a0,a2
    180810f2:	0015151b          	slliw	a0,a0,0x1
    				retflag 	+= 	*buf - '0';
    180810f6:	9d35                	addw	a0,a0,a3
   			if(( *buf >= '0' ) && ( *buf <= '9' )){
    180810f8:	fd07069b          	addiw	a3,a4,-48
    180810fc:	0ff6f713          	andi	a4,a3,255
    18081100:	fee873e3          	bgeu	a6,a4,180810e6 <A2Int+0x5a>
    18081104:	02b5053b          	mulw	a0,a0,a1
}
    18081108:	8082                	ret
  		if(( buf[0x00] == '0' ) && (( buf[0x01] == 'x' ) || ( buf[0x01] == 'X' ))){
    1808110a:	00154703          	lbu	a4,1(a0)
    1808110e:	05800613          	li	a2,88
  		flag = 0x01;
    18081112:	4585                	li	a1,1
  		if(( buf[0x00] == '0' ) && (( buf[0x01] == 'x' ) || ( buf[0x01] == 'X' ))){
    18081114:	0df77713          	andi	a4,a4,223
    18081118:	4681                	li	a3,0
    1808111a:	fcc714e3          	bne	a4,a2,180810e2 <A2Int+0x56>
   			buf += 0x02;
    1808111e:	00350793          	addi	a5,a0,3
	    			if(( *buf >= '0' ) && ( *buf <= '9' )){
    18081122:	fff7c703          	lbu	a4,-1(a5)
    18081126:	4325                	li	t1,9
 	retflag 	= 0x00;
    18081128:	4501                	li	a0,0
	    			if(( *buf >= '0' ) && ( *buf <= '9' )){
    1808112a:	fd07059b          	addiw	a1,a4,-48
	    			if(( *buf >= 'a' ) && ( *buf <= 'f' )){
    1808112e:	f9f7069b          	addiw	a3,a4,-97
	    			if(( *buf >= 'A' ) && ( *buf <= 'F' )){
    18081132:	fbf7061b          	addiw	a2,a4,-65
	    			if(( *buf >= '0' ) && ( *buf <= '9' )){
    18081136:	0ff5f813          	andi	a6,a1,255
	    			if(( *buf >= 'a' ) && ( *buf <= 'f' )){
    1808113a:	4895                	li	a7,5
    1808113c:	0ff6f693          	andi	a3,a3,255
	    			if(( *buf >= 'A' ) && ( *buf <= 'F' )){
    18081140:	0ff67613          	andi	a2,a2,255
	    			if(( *buf >= '0' ) && ( *buf <= '9' )){
    18081144:	03037c63          	bgeu	t1,a6,1808117c <A2Int+0xf0>
	    			if(( *buf >= 'a' ) && ( *buf <= 'f' )){
    18081148:	02d8ff63          	bgeu	a7,a3,18081186 <A2Int+0xfa>
	    			if(( *buf >= 'A' ) && ( *buf <= 'F' )){
    1808114c:	f6c8ede3          	bltu	a7,a2,180810c6 <A2Int+0x3a>
	     				retflag 	<<= 0x04;
    18081150:	0045151b          	slliw	a0,a0,0x4
	     				retflag 	+= *buf - ( 'A' - 0x0A );
    18081154:	fc97071b          	addiw	a4,a4,-55
    18081158:	9d39                	addw	a0,a0,a4
	     				continue;
    1808115a:	0785                	addi	a5,a5,1
	    			if(( *buf >= '0' ) && ( *buf <= '9' )){
    1808115c:	fff7c703          	lbu	a4,-1(a5)
    18081160:	fd07059b          	addiw	a1,a4,-48
	    			if(( *buf >= 'a' ) && ( *buf <= 'f' )){
    18081164:	f9f7069b          	addiw	a3,a4,-97
	    			if(( *buf >= 'A' ) && ( *buf <= 'F' )){
    18081168:	fbf7061b          	addiw	a2,a4,-65
	    			if(( *buf >= '0' ) && ( *buf <= '9' )){
    1808116c:	0ff5f813          	andi	a6,a1,255
	    			if(( *buf >= 'a' ) && ( *buf <= 'f' )){
    18081170:	0ff6f693          	andi	a3,a3,255
	    			if(( *buf >= 'A' ) && ( *buf <= 'F' )){
    18081174:	0ff67613          	andi	a2,a2,255
	    			if(( *buf >= '0' ) && ( *buf <= '9' )){
    18081178:	fd0368e3          	bltu	t1,a6,18081148 <A2Int+0xbc>
	     				retflag <<= 0x04;
    1808117c:	0045151b          	slliw	a0,a0,0x4
	     				retflag += *buf - '0';
    18081180:	9d2d                	addw	a0,a0,a1
	     				continue;
    18081182:	0785                	addi	a5,a5,1
    18081184:	bfe1                	j	1808115c <A2Int+0xd0>
	     				retflag 	<<= 0x04;
    18081186:	0045151b          	slliw	a0,a0,0x4
	     				retflag 	+= 	*buf - ( 'a' - 0x0a );
    1808118a:	fa97071b          	addiw	a4,a4,-87
    1808118e:	9d39                	addw	a0,a0,a4
	     				continue;
    18081190:	0785                	addi	a5,a5,1
    18081192:	b7e9                	j	1808115c <A2Int+0xd0>

0000000018081194 <ShowHexChar>:
	return retflag;
}


void ShowHexChar( unsigned char * pbuf )
{
    18081194:	1101                	addi	sp,sp,-32
    18081196:	e822                	sd	s0,16(sp)
    18081198:	842a                	mv	s0,a0
	int	item;
	rlSendString( "    " );
    1808119a:	00011517          	auipc	a0,0x11
    1808119e:	e0650513          	addi	a0,a0,-506 # 18091fa0 <CmdHandle+0xf0>
{
    180811a2:	e426                	sd	s1,8(sp)
    180811a4:	e04a                	sd	s2,0(sp)
    180811a6:	ec06                	sd	ra,24(sp)
    180811a8:	01040913          	addi	s2,s0,16
	rlSendString( "    " );
    180811ac:	fc6ff0ef          	jal	ra,18080972 <rlSendString>
	for( item = 0x00 ; item < 0x10 ; item++ ){
		if(( pbuf[item] >= 0x20 ) && ( pbuf[item] < 0x80 )) {
    180811b0:	05f00493          	li	s1,95
    180811b4:	a031                	j	180811c0 <ShowHexChar+0x2c>
    180811b6:	0405                	addi	s0,s0,1
			_putc( pbuf[item] );
			continue;
		}
		_putc( '.' );
    180811b8:	f90ff0ef          	jal	ra,18080948 <_putc>
	for( item = 0x00 ; item < 0x10 ; item++ ){
    180811bc:	03240263          	beq	s0,s2,180811e0 <ShowHexChar+0x4c>
		if(( pbuf[item] >= 0x20 ) && ( pbuf[item] < 0x80 )) {
    180811c0:	00044703          	lbu	a4,0(s0)
		_putc( '.' );
    180811c4:	02e00513          	li	a0,46
		if(( pbuf[item] >= 0x20 ) && ( pbuf[item] < 0x80 )) {
    180811c8:	fe07079b          	addiw	a5,a4,-32
    180811cc:	0ff7f793          	andi	a5,a5,255
    180811d0:	fef4e3e3          	bltu	s1,a5,180811b6 <ShowHexChar+0x22>
			_putc( pbuf[item] );
    180811d4:	853a                	mv	a0,a4
    180811d6:	0405                	addi	s0,s0,1
    180811d8:	f70ff0ef          	jal	ra,18080948 <_putc>
	for( item = 0x00 ; item < 0x10 ; item++ ){
    180811dc:	ff2412e3          	bne	s0,s2,180811c0 <ShowHexChar+0x2c>
	}
}
    180811e0:	60e2                	ld	ra,24(sp)
    180811e2:	6442                	ld	s0,16(sp)
    180811e4:	64a2                	ld	s1,8(sp)
    180811e6:	6902                	ld	s2,0(sp)
    180811e8:	6105                	addi	sp,sp,32
    180811ea:	8082                	ret

00000000180811ec <PrintIntHex>:
	}
}


void PrintIntHex( unsigned long hexData , int length )
{
    180811ec:	1101                	addi	sp,sp,-32
    180811ee:	ec06                	sd	ra,24(sp)
	int				curItem;
	unsigned int	temp;
	char			msgbuf[0x10];

	msgbuf[0x0A] = 0x00;
    180811f0:	00010523          	sb	zero,10(sp)

	curItem	= 0x09;
	while( curItem > 0x01 ){
    180811f4:	878a                	mv	a5,sp
    180811f6:	ff810893          	addi	a7,sp,-8
		temp	= hexData & 0x0F;
		hexData	>>= 0x04;
		if( temp <= 0x09 ){
    180811fa:	4825                	li	a6,9
    180811fc:	a031                	j	18081208 <PrintIntHex+0x1c>
    180811fe:	00d784a3          	sb	a3,9(a5)
    18081202:	17fd                	addi	a5,a5,-1
	while( curItem > 0x01 ){
    18081204:	02f88263          	beq	a7,a5,18081228 <PrintIntHex+0x3c>
		temp	= hexData & 0x0F;
    18081208:	00f57713          	andi	a4,a0,15
		hexData	>>= 0x04;
    1808120c:	0ff77613          	andi	a2,a4,255
			msgbuf[curItem]	= '0' + temp;
			curItem--;
			continue;
		}
		msgbuf[curItem]	= ( 'A' - 0x0A ) + temp;
    18081210:	03760693          	addi	a3,a2,55
		hexData	>>= 0x04;
    18081214:	8111                	srli	a0,a0,0x4
		if( temp <= 0x09 ){
    18081216:	fee864e3          	bltu	a6,a4,180811fe <PrintIntHex+0x12>
			msgbuf[curItem]	= '0' + temp;
    1808121a:	03060693          	addi	a3,a2,48
			continue;
    1808121e:	00d784a3          	sb	a3,9(a5)
    18081222:	17fd                	addi	a5,a5,-1
	while( curItem > 0x01 ){
    18081224:	fef892e3          	bne	a7,a5,18081208 <PrintIntHex+0x1c>
		curItem--;
	}
	rlSendString( msgbuf + ( 0x0A - length ));
    18081228:	4529                	li	a0,10
    1808122a:	9d0d                	subw	a0,a0,a1
    1808122c:	950a                	add	a0,a0,sp
    1808122e:	f44ff0ef          	jal	ra,18080972 <rlSendString>
}
    18081232:	60e2                	ld	ra,24(sp)
    18081234:	6105                	addi	sp,sp,32
    18081236:	8082                	ret

0000000018081238 <RelayProc>:
{
    18081238:	1101                	addi	sp,sp,-32
	if( CmdString(( char * ) StdHdl->argvList[0] , "" )){
    1808123a:	00011797          	auipc	a5,0x11
    1808123e:	42678793          	addi	a5,a5,1062 # 18092660 <StdHdl>
{
    18081242:	e822                	sd	s0,16(sp)
	if( CmdString(( char * ) StdHdl->argvList[0] , "" )){
    18081244:	6380                	ld	s0,0(a5)
{
    18081246:	ec06                	sd	ra,24(sp)
    18081248:	e426                	sd	s1,8(sp)
	if( CmdString(( char * ) StdHdl->argvList[0] , "" )){
    1808124a:	10043803          	ld	a6,256(s0)
	while(( *srccmd == *basecmd ) && ( *srccmd != 0x00 )){
    1808124e:	00084303          	lbu	t1,0(a6)
    18081252:	00031763          	bnez	t1,18081260 <RelayProc+0x28>
}
    18081256:	60e2                	ld	ra,24(sp)
    18081258:	6442                	ld	s0,16(sp)
    1808125a:	64a2                	ld	s1,8(sp)
    1808125c:	6105                	addi	sp,sp,32
    1808125e:	8082                	ret
	for( item = 0x00 ; item < gcurCmd ; item++ ){
    18081260:	00011797          	auipc	a5,0x11
    18081264:	3fc78793          	addi	a5,a5,1020 # 1809265c <gcurCmd>
    18081268:	4390                	lw	a2,0(a5)
    1808126a:	06c05463          	blez	a2,180812d2 <RelayProc+0x9a>
    1808126e:	00011e17          	auipc	t3,0x11
    18081272:	c42e0e13          	addi	t3,t3,-958 # 18091eb0 <CmdHandle>
    18081276:	88f2                	mv	a7,t3
    18081278:	03f00713          	li	a4,63
    1808127c:	00011797          	auipc	a5,0x11
    18081280:	d2c78793          	addi	a5,a5,-724 # 18091fa8 <CmdHandle+0xf8>
    18081284:	4501                	li	a0,0
	while(( *srccmd == *basecmd ) && ( *srccmd != 0x00 )){
    18081286:	00e31e63          	bne	t1,a4,180812a2 <RelayProc+0x6a>
    1808128a:	8742                	mv	a4,a6
    1808128c:	a011                	j	18081290 <RelayProc+0x58>
    1808128e:	c685                	beqz	a3,180812b6 <RelayProc+0x7e>
		srccmd++;
    18081290:	0705                	addi	a4,a4,1
		basecmd++;
    18081292:	0785                	addi	a5,a5,1
	while(( *srccmd == *basecmd ) && ( *srccmd != 0x00 )){
    18081294:	0007c683          	lbu	a3,0(a5)
    18081298:	00074583          	lbu	a1,0(a4)
    1808129c:	feb689e3          	beq	a3,a1,1808128e <RelayProc+0x56>
	if( *srccmd == 0x00 ){
    180812a0:	c999                	beqz	a1,180812b6 <RelayProc+0x7e>
	for( item = 0x00 ; item < gcurCmd ; item++ ){
    180812a2:	2505                	addiw	a0,a0,1
    180812a4:	02088893          	addi	a7,a7,32
    180812a8:	02c50563          	beq	a0,a2,180812d2 <RelayProc+0x9a>
    180812ac:	0008b783          	ld	a5,0(a7)
    180812b0:	0007c703          	lbu	a4,0(a5)
    180812b4:	bfc9                	j	18081286 <RelayProc+0x4e>
			CmdHandle[item].cmdScriptProc( CmdHandle[item].context , ( int ) StdHdl->curArgc , ( char ** )StdHdl->argvList );
    180812b6:	0516                	slli	a0,a0,0x5
    180812b8:	9572                	add	a0,a0,t3
    180812ba:	0c842583          	lw	a1,200(s0)
    180812be:	10040613          	addi	a2,s0,256
}
    180812c2:	6442                	ld	s0,16(sp)
			CmdHandle[item].cmdScriptProc( CmdHandle[item].context , ( int ) StdHdl->curArgc , ( char ** )StdHdl->argvList );
    180812c4:	01053303          	ld	t1,16(a0)
}
    180812c8:	60e2                	ld	ra,24(sp)
    180812ca:	64a2                	ld	s1,8(sp)
			CmdHandle[item].cmdScriptProc( CmdHandle[item].context , ( int ) StdHdl->curArgc , ( char ** )StdHdl->argvList );
    180812cc:	6508                	ld	a0,8(a0)
}
    180812ce:	6105                	addi	sp,sp,32
			CmdHandle[item].cmdScriptProc( CmdHandle[item].context , ( int ) StdHdl->curArgc , ( char ** )StdHdl->argvList );
    180812d0:	8302                	jr	t1
	if( StdHdl->curArgc == 0x02 ){
    180812d2:	647c                	ld	a5,200(s0)
    180812d4:	4709                	li	a4,2
    180812d6:	0ce78763          	beq	a5,a4,180813a4 <RelayProc+0x16c>
	if( StdHdl->curArgc == 0x03 ){
    180812da:	470d                	li	a4,3
    180812dc:	0ae79a63          	bne	a5,a4,18081390 <RelayProc+0x158>
	while(( *srccmd == *basecmd ) && ( *srccmd != 0x00 )){
    180812e0:	07700793          	li	a5,119
    180812e4:	0af31663          	bne	t1,a5,18081390 <RelayProc+0x158>
    180812e8:	87c2                	mv	a5,a6
    180812ea:	06200693          	li	a3,98
    180812ee:	00011717          	auipc	a4,0x11
    180812f2:	cda70713          	addi	a4,a4,-806 # 18091fc8 <CmdHandle+0x118>
    180812f6:	a029                	j	18081300 <RelayProc+0xc8>
    180812f8:	14068a63          	beqz	a3,1808144c <RelayProc+0x214>
    180812fc:	00174683          	lbu	a3,1(a4)
		srccmd++;
    18081300:	0785                	addi	a5,a5,1
	while(( *srccmd == *basecmd ) && ( *srccmd != 0x00 )){
    18081302:	0007c603          	lbu	a2,0(a5)
		basecmd++;
    18081306:	0705                	addi	a4,a4,1
	while(( *srccmd == *basecmd ) && ( *srccmd != 0x00 )){
    18081308:	fed608e3          	beq	a2,a3,180812f8 <RelayProc+0xc0>
	if( *srccmd == 0x00 ){
    1808130c:	14060063          	beqz	a2,1808144c <RelayProc+0x214>
    18081310:	87c2                	mv	a5,a6
    18081312:	06800693          	li	a3,104
    18081316:	00011717          	auipc	a4,0x11
    1808131a:	cba70713          	addi	a4,a4,-838 # 18091fd0 <CmdHandle+0x120>
    1808131e:	a029                	j	18081328 <RelayProc+0xf0>
	while(( *srccmd == *basecmd ) && ( *srccmd != 0x00 )){
    18081320:	1c068163          	beqz	a3,180814e2 <RelayProc+0x2aa>
    18081324:	00174683          	lbu	a3,1(a4)
		srccmd++;
    18081328:	0785                	addi	a5,a5,1
	while(( *srccmd == *basecmd ) && ( *srccmd != 0x00 )){
    1808132a:	0007c603          	lbu	a2,0(a5)
		basecmd++;
    1808132e:	0705                	addi	a4,a4,1
	while(( *srccmd == *basecmd ) && ( *srccmd != 0x00 )){
    18081330:	fec688e3          	beq	a3,a2,18081320 <RelayProc+0xe8>
	if( *srccmd == 0x00 ){
    18081334:	06c00713          	li	a4,108
    18081338:	00011797          	auipc	a5,0x11
    1808133c:	ca078793          	addi	a5,a5,-864 # 18091fd8 <CmdHandle+0x128>
    18081340:	e609                	bnez	a2,1808134a <RelayProc+0x112>
    18081342:	a245                	j	180814e2 <RelayProc+0x2aa>
	while(( *srccmd == *basecmd ) && ( *srccmd != 0x00 )){
    18081344:	cb11                	beqz	a4,18081358 <RelayProc+0x120>
    18081346:	0017c703          	lbu	a4,1(a5)
		srccmd++;
    1808134a:	0805                	addi	a6,a6,1
	while(( *srccmd == *basecmd ) && ( *srccmd != 0x00 )){
    1808134c:	00084683          	lbu	a3,0(a6)
		basecmd++;
    18081350:	0785                	addi	a5,a5,1
	while(( *srccmd == *basecmd ) && ( *srccmd != 0x00 )){
    18081352:	fee689e3          	beq	a3,a4,18081344 <RelayProc+0x10c>
	if( *srccmd == 0x00 ){
    18081356:	ee8d                	bnez	a3,18081390 <RelayProc+0x158>
			item		= A2Int(( char * ) StdHdl->argvList[0x01] );
    18081358:	10843503          	ld	a0,264(s0)
    1808135c:	d31ff0ef          	jal	ra,1808108c <A2Int>
    18081360:	84aa                	mv	s1,a0
			retflag	= A2Int(( char * ) StdHdl->argvList[0x02] );
    18081362:	11043503          	ld	a0,272(s0)
    18081366:	d27ff0ef          	jal	ra,1808108c <A2Int>
			if( item & 0x0003 ){
    1808136a:	0034f793          	andi	a5,s1,3
    1808136e:	1c078e63          	beqz	a5,1808154a <RelayProc+0x312>
				rlSendString( "\r\n Write Long Error address: 0x" );
    18081372:	00011517          	auipc	a0,0x11
    18081376:	d1650513          	addi	a0,a0,-746 # 18092088 <CmdHandle+0x1d8>
    1808137a:	df8ff0ef          	jal	ra,18080972 <rlSendString>
				PrintIntHex(( unsigned long ) item , 0x8 );
    1808137e:	8526                	mv	a0,s1
    18081380:	45a1                	li	a1,8
    18081382:	e6bff0ef          	jal	ra,180811ec <PrintIntHex>
				rlSendString( "\r\n" );
    18081386:	00011517          	auipc	a0,0x11
    1808138a:	fe250513          	addi	a0,a0,-30 # 18092368 <dwmci_ops+0x40>
    1808138e:	a029                	j	18081398 <RelayProc+0x160>
	rlSendString( "\r\nWarning : Error command, Type ? or help to get CMD info\r\n" );
    18081390:	00011517          	auipc	a0,0x11
    18081394:	d3050513          	addi	a0,a0,-720 # 180920c0 <CmdHandle+0x210>
}
    18081398:	6442                	ld	s0,16(sp)
    1808139a:	60e2                	ld	ra,24(sp)
    1808139c:	64a2                	ld	s1,8(sp)
    1808139e:	6105                	addi	sp,sp,32
	rlSendString( "\r\nWarning : Error command, Type ? or help to get CMD info\r\n" );
    180813a0:	dd2ff06f          	j	18080972 <rlSendString>
	while(( *srccmd == *basecmd ) && ( *srccmd != 0x00 )){
    180813a4:	07200793          	li	a5,114
    180813a8:	fef314e3          	bne	t1,a5,18081390 <RelayProc+0x158>
    180813ac:	87c2                	mv	a5,a6
    180813ae:	06200693          	li	a3,98
    180813b2:	00011717          	auipc	a4,0x11
    180813b6:	bfe70713          	addi	a4,a4,-1026 # 18091fb0 <CmdHandle+0x100>
    180813ba:	a021                	j	180813c2 <RelayProc+0x18a>
    180813bc:	c6e9                	beqz	a3,18081486 <RelayProc+0x24e>
    180813be:	00174683          	lbu	a3,1(a4)
		srccmd++;
    180813c2:	0785                	addi	a5,a5,1
	while(( *srccmd == *basecmd ) && ( *srccmd != 0x00 )){
    180813c4:	0007c603          	lbu	a2,0(a5)
		basecmd++;
    180813c8:	0705                	addi	a4,a4,1
	while(( *srccmd == *basecmd ) && ( *srccmd != 0x00 )){
    180813ca:	fed609e3          	beq	a2,a3,180813bc <RelayProc+0x184>
	if( *srccmd == 0x00 ){
    180813ce:	ce45                	beqz	a2,18081486 <RelayProc+0x24e>
    180813d0:	87c2                	mv	a5,a6
    180813d2:	06800693          	li	a3,104
    180813d6:	00011717          	auipc	a4,0x11
    180813da:	be270713          	addi	a4,a4,-1054 # 18091fb8 <CmdHandle+0x108>
    180813de:	a021                	j	180813e6 <RelayProc+0x1ae>
	while(( *srccmd == *basecmd ) && ( *srccmd != 0x00 )){
    180813e0:	cae1                	beqz	a3,180814b0 <RelayProc+0x278>
    180813e2:	00174683          	lbu	a3,1(a4)
		srccmd++;
    180813e6:	0785                	addi	a5,a5,1
	while(( *srccmd == *basecmd ) && ( *srccmd != 0x00 )){
    180813e8:	0007c603          	lbu	a2,0(a5)
		basecmd++;
    180813ec:	0705                	addi	a4,a4,1
	while(( *srccmd == *basecmd ) && ( *srccmd != 0x00 )){
    180813ee:	fed609e3          	beq	a2,a3,180813e0 <RelayProc+0x1a8>
	if( *srccmd == 0x00 ){
    180813f2:	06c00713          	li	a4,108
    180813f6:	00011797          	auipc	a5,0x11
    180813fa:	bca78793          	addi	a5,a5,-1078 # 18091fc0 <CmdHandle+0x110>
    180813fe:	e609                	bnez	a2,18081408 <RelayProc+0x1d0>
    18081400:	a845                	j	180814b0 <RelayProc+0x278>
	while(( *srccmd == *basecmd ) && ( *srccmd != 0x00 )){
    18081402:	cb11                	beqz	a4,18081416 <RelayProc+0x1de>
    18081404:	0017c703          	lbu	a4,1(a5)
		srccmd++;
    18081408:	0805                	addi	a6,a6,1
	while(( *srccmd == *basecmd ) && ( *srccmd != 0x00 )){
    1808140a:	00084683          	lbu	a3,0(a6)
		basecmd++;
    1808140e:	0785                	addi	a5,a5,1
	while(( *srccmd == *basecmd ) && ( *srccmd != 0x00 )){
    18081410:	fee689e3          	beq	a3,a4,18081402 <RelayProc+0x1ca>
	if( *srccmd == 0x00 ){
    18081414:	feb5                	bnez	a3,18081390 <RelayProc+0x158>
			item	= A2Int(( char * ) StdHdl->argvList[0x01] );
    18081416:	10843503          	ld	a0,264(s0)
    1808141a:	c73ff0ef          	jal	ra,1808108c <A2Int>
			if( item & 0x0003 ){
    1808141e:	00357793          	andi	a5,a0,3
			item	= A2Int(( char * ) StdHdl->argvList[0x01] );
    18081422:	842a                	mv	s0,a0
			if( item & 0x0003 ){
    18081424:	10079463          	bnez	a5,1808152c <RelayProc+0x2f4>
			retflag	= (( unsigned long * )item)[0x00];
    18081428:	6100                	ld	s0,0(a0)
			rlSendString( "Read Long : 0x" );
    1808142a:	00011517          	auipc	a0,0x11
    1808142e:	bfe50513          	addi	a0,a0,-1026 # 18092028 <CmdHandle+0x178>
    18081432:	d40ff0ef          	jal	ra,18080972 <rlSendString>
			PrintIntHex(( unsigned long ) retflag , 0x8 );
    18081436:	02041513          	slli	a0,s0,0x20
    1808143a:	9101                	srli	a0,a0,0x20
    1808143c:	45a1                	li	a1,8
    1808143e:	dafff0ef          	jal	ra,180811ec <PrintIntHex>
			rlSendString( "\r\n" );
    18081442:	00011517          	auipc	a0,0x11
    18081446:	f2650513          	addi	a0,a0,-218 # 18092368 <dwmci_ops+0x40>
    1808144a:	b7b9                	j	18081398 <RelayProc+0x160>
			item		= A2Int(( char * ) StdHdl->argvList[0x01] );
    1808144c:	10843503          	ld	a0,264(s0)
    18081450:	c3dff0ef          	jal	ra,1808108c <A2Int>
    18081454:	84aa                	mv	s1,a0
			retflag	= A2Int(( char * ) StdHdl->argvList[0x02] );
    18081456:	11043503          	ld	a0,272(s0)
    1808145a:	c33ff0ef          	jal	ra,1808108c <A2Int>
    1808145e:	842a                	mv	s0,a0
			(( unsigned char * )item)[0x00]	= ( unsigned char )retflag;
    18081460:	00a48023          	sb	a0,0(s1)
			rlSendString( "\r\n Write Byte: 0x" );
    18081464:	00011517          	auipc	a0,0x11
    18081468:	bd450513          	addi	a0,a0,-1068 # 18092038 <CmdHandle+0x188>
    1808146c:	d06ff0ef          	jal	ra,18080972 <rlSendString>
			PrintIntHex(( unsigned long ) retflag , 0x2 );
    18081470:	02041513          	slli	a0,s0,0x20
    18081474:	9101                	srli	a0,a0,0x20
    18081476:	4589                	li	a1,2
    18081478:	d75ff0ef          	jal	ra,180811ec <PrintIntHex>
			rlSendString( "\r\n" );
    1808147c:	00011517          	auipc	a0,0x11
    18081480:	eec50513          	addi	a0,a0,-276 # 18092368 <dwmci_ops+0x40>
    18081484:	bf11                	j	18081398 <RelayProc+0x160>
			item	= A2Int(( char * ) StdHdl->argvList[0x01] );
    18081486:	10843503          	ld	a0,264(s0)
    1808148a:	c03ff0ef          	jal	ra,1808108c <A2Int>
			retflag	= (( unsigned char * )item)[0x00];
    1808148e:	00054403          	lbu	s0,0(a0)
			rlSendString( "\r\n Read Byte : 0x" );
    18081492:	00011517          	auipc	a0,0x11
    18081496:	b4e50513          	addi	a0,a0,-1202 # 18091fe0 <CmdHandle+0x130>
    1808149a:	cd8ff0ef          	jal	ra,18080972 <rlSendString>
			PrintIntHex(( unsigned long ) retflag , 0x2 );
    1808149e:	8522                	mv	a0,s0
    180814a0:	4589                	li	a1,2
    180814a2:	d4bff0ef          	jal	ra,180811ec <PrintIntHex>
			rlSendString( "\r\n" );
    180814a6:	00011517          	auipc	a0,0x11
    180814aa:	ec250513          	addi	a0,a0,-318 # 18092368 <dwmci_ops+0x40>
    180814ae:	b5ed                	j	18081398 <RelayProc+0x160>
			item	= A2Int(( char * ) StdHdl->argvList[0x01] );
    180814b0:	10843503          	ld	a0,264(s0)
    180814b4:	bd9ff0ef          	jal	ra,1808108c <A2Int>
			if( item & 0x0001 ){
    180814b8:	00157793          	andi	a5,a0,1
			item	= A2Int(( char * ) StdHdl->argvList[0x01] );
    180814bc:	842a                	mv	s0,a0
			if( item & 0x0001 ){
    180814be:	e7bd                	bnez	a5,1808152c <RelayProc+0x2f4>
			retflag	= (( unsigned short * )item)[0x00];
    180814c0:	00055403          	lhu	s0,0(a0)
			rlSendString( "\r\n Read Half : 0x" );
    180814c4:	00011517          	auipc	a0,0x11
    180814c8:	b4c50513          	addi	a0,a0,-1204 # 18092010 <CmdHandle+0x160>
    180814cc:	ca6ff0ef          	jal	ra,18080972 <rlSendString>
			PrintIntHex(( unsigned long ) retflag , 0x4 );
    180814d0:	8522                	mv	a0,s0
    180814d2:	4591                	li	a1,4
    180814d4:	d19ff0ef          	jal	ra,180811ec <PrintIntHex>
			rlSendString( "\r\n" );
    180814d8:	00011517          	auipc	a0,0x11
    180814dc:	e9050513          	addi	a0,a0,-368 # 18092368 <dwmci_ops+0x40>
    180814e0:	bd65                	j	18081398 <RelayProc+0x160>
			item		= A2Int(( char * ) StdHdl->argvList[0x01] );
    180814e2:	10843503          	ld	a0,264(s0)
    180814e6:	ba7ff0ef          	jal	ra,1808108c <A2Int>
    180814ea:	84aa                	mv	s1,a0
			retflag	= A2Int(( char * ) StdHdl->argvList[0x02] );
    180814ec:	11043503          	ld	a0,272(s0)
    180814f0:	b9dff0ef          	jal	ra,1808108c <A2Int>
			if( item & 0x0001 ){
    180814f4:	0014f793          	andi	a5,s1,1
			retflag	= A2Int(( char * ) StdHdl->argvList[0x02] );
    180814f8:	842a                	mv	s0,a0
				rlSendString( "\r\n Write Half Error address: 0x" );
    180814fa:	00011517          	auipc	a0,0x11
    180814fe:	b5650513          	addi	a0,a0,-1194 # 18092050 <CmdHandle+0x1a0>
			if( item & 0x0001 ){
    18081502:	e6079ce3          	bnez	a5,1808137a <RelayProc+0x142>
			(( unsigned short * )item)[0x00]	= ( unsigned short )retflag;
    18081506:	00849023          	sh	s0,0(s1)
			rlSendString( "\r\n Write Half: 0x" );
    1808150a:	00011517          	auipc	a0,0x11
    1808150e:	b6650513          	addi	a0,a0,-1178 # 18092070 <CmdHandle+0x1c0>
    18081512:	c60ff0ef          	jal	ra,18080972 <rlSendString>
			PrintIntHex(( unsigned long ) retflag , 0x4 );
    18081516:	02041513          	slli	a0,s0,0x20
    1808151a:	9101                	srli	a0,a0,0x20
    1808151c:	4591                	li	a1,4
    1808151e:	ccfff0ef          	jal	ra,180811ec <PrintIntHex>
			rlSendString( "\r\n" );
    18081522:	00011517          	auipc	a0,0x11
    18081526:	e4650513          	addi	a0,a0,-442 # 18092368 <dwmci_ops+0x40>
    1808152a:	b5bd                	j	18081398 <RelayProc+0x160>
				rlSendString( "\r\n Error address: 0x" );
    1808152c:	00011517          	auipc	a0,0x11
    18081530:	acc50513          	addi	a0,a0,-1332 # 18091ff8 <CmdHandle+0x148>
			rlSendString( "\r\n Write Long: 0x" );
    18081534:	c3eff0ef          	jal	ra,18080972 <rlSendString>
			PrintIntHex(( unsigned long ) retflag , 0x8 );
    18081538:	8522                	mv	a0,s0
    1808153a:	45a1                	li	a1,8
    1808153c:	cb1ff0ef          	jal	ra,180811ec <PrintIntHex>
			rlSendString( "\r\n" );
    18081540:	00011517          	auipc	a0,0x11
    18081544:	e2850513          	addi	a0,a0,-472 # 18092368 <dwmci_ops+0x40>
    18081548:	bd81                	j	18081398 <RelayProc+0x160>
			(( unsigned long * )item)[0x00]	= ( unsigned long )retflag;
    1808154a:	02051413          	slli	s0,a0,0x20
    1808154e:	9001                	srli	s0,s0,0x20
    18081550:	e080                	sd	s0,0(s1)
			rlSendString( "\r\n Write Long: 0x" );
    18081552:	00011517          	auipc	a0,0x11
    18081556:	b5650513          	addi	a0,a0,-1194 # 180920a8 <CmdHandle+0x1f8>
    1808155a:	bfe9                	j	18081534 <RelayProc+0x2fc>

000000001808155c <LoadProc>:
{
    1808155c:	1141                	addi	sp,sp,-16
    1808155e:	e406                	sd	ra,8(sp)
    18081560:	e022                	sd	s0,0(sp)
	if( argc == 0x02 )
    18081562:	4789                	li	a5,2
    18081564:	00f58e63          	beq	a1,a5,18081580 <LoadProc+0x24>
		rlSendString( "\r\nCMD format: load startaddr\r\n" );
    18081568:	00011517          	auipc	a0,0x11
    1808156c:	be050513          	addi	a0,a0,-1056 # 18092148 <CmdHandle+0x298>
    18081570:	c02ff0ef          	jal	ra,18080972 <rlSendString>
		retflag = 2;
    18081574:	4409                	li	s0,2
}	
    18081576:	8522                	mv	a0,s0
    18081578:	60a2                	ld	ra,8(sp)
    1808157a:	6402                	ld	s0,0(sp)
    1808157c:	0141                	addi	sp,sp,16
    1808157e:	8082                	ret
		pStart	= A2Int(( char * ) StdHdl->argvList[0x01] );
    18081580:	00011797          	auipc	a5,0x11
    18081584:	0e078793          	addi	a5,a5,224 # 18092660 <StdHdl>
    18081588:	639c                	ld	a5,0(a5)
    1808158a:	1087b503          	ld	a0,264(a5)
    1808158e:	affff0ef          	jal	ra,1808108c <A2Int>
		if( pStart & 0x03 ){
    18081592:	00357793          	andi	a5,a0,3
		pStart	= A2Int(( char * ) StdHdl->argvList[0x01] );
    18081596:	842a                	mv	s0,a0
		if( pStart & 0x03 ){
    18081598:	eb8d                	bnez	a5,180815ca <LoadProc+0x6e>
			retflag = xmodem_recv_file((unsigned char *)pStart, 0);
    1808159a:	4581                	li	a1,0
    1808159c:	07f000ef          	jal	ra,18081e1a <xmodem_recv_file>
    180815a0:	842a                	mv	s0,a0
			rlSendString( "\r\nLoad file " );
    180815a2:	00011517          	auipc	a0,0x11
    180815a6:	b7e50513          	addi	a0,a0,-1154 # 18092120 <CmdHandle+0x270>
    180815aa:	bc8ff0ef          	jal	ra,18080972 <rlSendString>
			if(retflag == TRUE)
    180815ae:	4785                	li	a5,1
    180815b0:	04f40363          	beq	s0,a5,180815f6 <LoadProc+0x9a>
				rlSendString( " Error\r\n" );
    180815b4:	00011517          	auipc	a0,0x11
    180815b8:	b8450513          	addi	a0,a0,-1148 # 18092138 <CmdHandle+0x288>
    180815bc:	bb6ff0ef          	jal	ra,18080972 <rlSendString>
}	
    180815c0:	8522                	mv	a0,s0
    180815c2:	60a2                	ld	ra,8(sp)
    180815c4:	6402                	ld	s0,0(sp)
    180815c6:	0141                	addi	sp,sp,16
    180815c8:	8082                	ret
			rlSendString( "\r\n Error : load error for 0x" );
    180815ca:	00011517          	auipc	a0,0x11
    180815ce:	b3650513          	addi	a0,a0,-1226 # 18092100 <CmdHandle+0x250>
    180815d2:	ba0ff0ef          	jal	ra,18080972 <rlSendString>
			PrintIntHex(( unsigned long ) pStart , 0x8 );
    180815d6:	8522                	mv	a0,s0
    180815d8:	45a1                	li	a1,8
    180815da:	c13ff0ef          	jal	ra,180811ec <PrintIntHex>
			rlSendString( "\r\n" );
    180815de:	00011517          	auipc	a0,0x11
    180815e2:	d8a50513          	addi	a0,a0,-630 # 18092368 <dwmci_ops+0x40>
    180815e6:	b8cff0ef          	jal	ra,18080972 <rlSendString>
			retflag = 2;
    180815ea:	4409                	li	s0,2
}	
    180815ec:	8522                	mv	a0,s0
    180815ee:	60a2                	ld	ra,8(sp)
    180815f0:	6402                	ld	s0,0(sp)
    180815f2:	0141                	addi	sp,sp,16
    180815f4:	8082                	ret
				rlSendString( " ok\r\n" );
    180815f6:	00011517          	auipc	a0,0x11
    180815fa:	b3a50513          	addi	a0,a0,-1222 # 18092130 <CmdHandle+0x280>
    180815fe:	b74ff0ef          	jal	ra,18080972 <rlSendString>
}	
    18081602:	8522                	mv	a0,s0
    18081604:	60a2                	ld	ra,8(sp)
    18081606:	6402                	ld	s0,0(sp)
    18081608:	0141                	addi	sp,sp,16
    1808160a:	8082                	ret

000000001808160c <Do32Proc>:
{
    1808160c:	1101                	addi	sp,sp,-32
    1808160e:	ec06                	sd	ra,24(sp)
    18081610:	e822                	sd	s0,16(sp)
    18081612:	e426                	sd	s1,8(sp)
	if( argc == 0x02 ){
    18081614:	4789                	li	a5,2
    18081616:	00f58f63          	beq	a1,a5,18081634 <Do32Proc+0x28>
		rlSendString( "\r\nCMD format: do startaddr\r\n" );
    1808161a:	00011517          	auipc	a0,0x11
    1808161e:	b7650513          	addi	a0,a0,-1162 # 18092190 <CmdHandle+0x2e0>
    18081622:	b50ff0ef          	jal	ra,18080972 <rlSendString>
		retflag = 2;
    18081626:	4409                	li	s0,2
}	
    18081628:	8522                	mv	a0,s0
    1808162a:	60e2                	ld	ra,24(sp)
    1808162c:	6442                	ld	s0,16(sp)
    1808162e:	64a2                	ld	s1,8(sp)
    18081630:	6105                	addi	sp,sp,32
    18081632:	8082                	ret
		pStart	=  A2Int(( char * ) StdHdl->argvList[0x01] );
    18081634:	00011797          	auipc	a5,0x11
    18081638:	02c78793          	addi	a5,a5,44 # 18092660 <StdHdl>
    1808163c:	639c                	ld	a5,0(a5)
    1808163e:	1087b503          	ld	a0,264(a5)
    18081642:	a4bff0ef          	jal	ra,1808108c <A2Int>
    18081646:	00357413          	andi	s0,a0,3
    1808164a:	84aa                	mv	s1,a0
		if((pStart &0x3)==0)
    1808164c:	e809                	bnez	s0,1808165e <Do32Proc+0x52>
			start2run32(pStart);
    1808164e:	b4dfe0ef          	jal	ra,1808019a <start2run32>
}	
    18081652:	8522                	mv	a0,s0
    18081654:	60e2                	ld	ra,24(sp)
    18081656:	6442                	ld	s0,16(sp)
    18081658:	64a2                	ld	s1,8(sp)
    1808165a:	6105                	addi	sp,sp,32
    1808165c:	8082                	ret
			rlSendString( "\r\nError, it's invalid Address: 0x" );
    1808165e:	00011517          	auipc	a0,0x11
    18081662:	b0a50513          	addi	a0,a0,-1270 # 18092168 <CmdHandle+0x2b8>
    18081666:	b0cff0ef          	jal	ra,18080972 <rlSendString>
			PrintIntHex(( unsigned long ) pStart , 0x8 );
    1808166a:	8526                	mv	a0,s1
    1808166c:	45a1                	li	a1,8
    1808166e:	b7fff0ef          	jal	ra,180811ec <PrintIntHex>
			rlSendString( "\r\n" );
    18081672:	00011517          	auipc	a0,0x11
    18081676:	cf650513          	addi	a0,a0,-778 # 18092368 <dwmci_ops+0x40>
    1808167a:	af8ff0ef          	jal	ra,18080972 <rlSendString>
			retflag = 1; 
    1808167e:	4405                	li	s0,1
}	
    18081680:	8522                	mv	a0,s0
    18081682:	60e2                	ld	ra,24(sp)
    18081684:	6442                	ld	s0,16(sp)
    18081686:	64a2                	ld	s1,8(sp)
    18081688:	6105                	addi	sp,sp,32
    1808168a:	8082                	ret

000000001808168c <ShowByte>:
{
    1808168c:	7139                	addi	sp,sp,-64
    1808168e:	f04a                	sd	s2,32(sp)
    18081690:	fc06                	sd	ra,56(sp)
    18081692:	f822                	sd	s0,48(sp)
    18081694:	f426                	sd	s1,40(sp)
    18081696:	ec4e                	sd	s3,24(sp)
    18081698:	e852                	sd	s4,16(sp)
    1808169a:	e456                	sd	s5,8(sp)
	for( endPbuf = (( unsigned long ) pbuf ) + length ; ( unsigned long )pbuf < endPbuf ; pbuf++ ){
    1808169c:	00b50933          	add	s2,a0,a1
    180816a0:	05257c63          	bgeu	a0,s2,180816f8 <ShowByte+0x6c>
    180816a4:	89aa                	mv	s3,a0
    180816a6:	842a                	mv	s0,a0
		if(((( unsigned long ) pbuf ) & 0x0000000F ) == 0x0000000F ){
    180816a8:	4a3d                	li	s4,15
			rlSendString( "\r\n" );
    180816aa:	00011a97          	auipc	s5,0x11
    180816ae:	cbea8a93          	addi	s5,s5,-834 # 18092368 <dwmci_ops+0x40>
    180816b2:	a829                	j	180816cc <ShowByte+0x40>
		_putc( ' ' );
    180816b4:	a94ff0ef          	jal	ra,18080948 <_putc>
		PrintIntHex(( unsigned long )( *pbuf ) , 0x00000002 );
    180816b8:	00044503          	lbu	a0,0(s0)
    180816bc:	4589                	li	a1,2
    180816be:	b2fff0ef          	jal	ra,180811ec <PrintIntHex>
		if(((( unsigned long ) pbuf ) & 0x0000000F ) == 0x0000000F ){
    180816c2:	05448463          	beq	s1,s4,1808170a <ShowByte+0x7e>
	for( endPbuf = (( unsigned long ) pbuf ) + length ; ( unsigned long )pbuf < endPbuf ; pbuf++ ){
    180816c6:	0405                	addi	s0,s0,1
    180816c8:	03247863          	bgeu	s0,s2,180816f8 <ShowByte+0x6c>
		if(((( unsigned long ) pbuf ) & 0x0000000F ) == 0x00000000 ){
    180816cc:	00f47493          	andi	s1,s0,15
		_putc( ' ' );
    180816d0:	02000513          	li	a0,32
		if(((( unsigned long ) pbuf ) & 0x0000000F ) == 0x00000000 ){
    180816d4:	f0e5                	bnez	s1,180816b4 <ShowByte+0x28>
			PrintIntHex(( unsigned long ) pbuf , 0x08 );
    180816d6:	45a1                	li	a1,8
    180816d8:	8522                	mv	a0,s0
    180816da:	b13ff0ef          	jal	ra,180811ec <PrintIntHex>
		_putc( ' ' );
    180816de:	02000513          	li	a0,32
    180816e2:	a66ff0ef          	jal	ra,18080948 <_putc>
		PrintIntHex(( unsigned long )( *pbuf ) , 0x00000002 );
    180816e6:	00044503          	lbu	a0,0(s0)
    180816ea:	4589                	li	a1,2
    180816ec:	89a2                	mv	s3,s0
	for( endPbuf = (( unsigned long ) pbuf ) + length ; ( unsigned long )pbuf < endPbuf ; pbuf++ ){
    180816ee:	0405                	addi	s0,s0,1
		PrintIntHex(( unsigned long )( *pbuf ) , 0x00000002 );
    180816f0:	afdff0ef          	jal	ra,180811ec <PrintIntHex>
	for( endPbuf = (( unsigned long ) pbuf ) + length ; ( unsigned long )pbuf < endPbuf ; pbuf++ ){
    180816f4:	fd246ce3          	bltu	s0,s2,180816cc <ShowByte+0x40>
}
    180816f8:	70e2                	ld	ra,56(sp)
    180816fa:	7442                	ld	s0,48(sp)
    180816fc:	74a2                	ld	s1,40(sp)
    180816fe:	7902                	ld	s2,32(sp)
    18081700:	69e2                	ld	s3,24(sp)
    18081702:	6a42                	ld	s4,16(sp)
    18081704:	6aa2                	ld	s5,8(sp)
    18081706:	6121                	addi	sp,sp,64
    18081708:	8082                	ret
			ShowHexChar( pCurBuf );
    1808170a:	854e                	mv	a0,s3
    1808170c:	a89ff0ef          	jal	ra,18081194 <ShowHexChar>
			rlSendString( "\r\n" );
    18081710:	8556                	mv	a0,s5
    18081712:	a60ff0ef          	jal	ra,18080972 <rlSendString>
			if( CtrlBreak( )){
    18081716:	a92ff0ef          	jal	ra,180809a8 <CtrlBreak>
    1808171a:	d555                	beqz	a0,180816c6 <ShowByte+0x3a>
    1808171c:	bff1                	j	180816f8 <ShowByte+0x6c>

000000001808171e <ShowShort>:
{
    1808171e:	7179                	addi	sp,sp,-48
    18081720:	ec26                	sd	s1,24(sp)
    18081722:	f406                	sd	ra,40(sp)
    18081724:	f022                	sd	s0,32(sp)
    18081726:	e84a                	sd	s2,16(sp)
    18081728:	e44e                	sd	s3,8(sp)
    1808172a:	e052                	sd	s4,0(sp)
	for( endPbuf = (( unsigned long ) pbuf ) + length ; ( unsigned long )pbuf < endPbuf ; pbuf++ ){
    1808172c:	00b504b3          	add	s1,a0,a1
    18081730:	02957c63          	bgeu	a0,s1,18081768 <ShowShort+0x4a>
    18081734:	89aa                	mv	s3,a0
    18081736:	842a                	mv	s0,a0
		if(((( unsigned long ) pbuf ) & 0x0000000E ) == 0x0000000E ){
    18081738:	4939                	li	s2,14
			rlSendString( "\r\n" );
    1808173a:	00011a17          	auipc	s4,0x11
    1808173e:	c2ea0a13          	addi	s4,s4,-978 # 18092368 <dwmci_ops+0x40>
		if(((( unsigned long ) pbuf ) & 0x0000000F ) == 0x00000000 ){
    18081742:	00f47793          	andi	a5,s0,15
    18081746:	c7a9                	beqz	a5,18081790 <ShowShort+0x72>
		_putc( ' ' );
    18081748:	02000513          	li	a0,32
    1808174c:	9fcff0ef          	jal	ra,18080948 <_putc>
		PrintIntHex(( unsigned long )( *pbuf ) , 0x00000004 );
    18081750:	00045503          	lhu	a0,0(s0)
    18081754:	4591                	li	a1,4
    18081756:	a97ff0ef          	jal	ra,180811ec <PrintIntHex>
		if(((( unsigned long ) pbuf ) & 0x0000000E ) == 0x0000000E ){
    1808175a:	00e47793          	andi	a5,s0,14
	for( endPbuf = (( unsigned long ) pbuf ) + length ; ( unsigned long )pbuf < endPbuf ; pbuf++ ){
    1808175e:	0409                	addi	s0,s0,2
		if(((( unsigned long ) pbuf ) & 0x0000000E ) == 0x0000000E ){
    18081760:	01278c63          	beq	a5,s2,18081778 <ShowShort+0x5a>
	for( endPbuf = (( unsigned long ) pbuf ) + length ; ( unsigned long )pbuf < endPbuf ; pbuf++ ){
    18081764:	fc946fe3          	bltu	s0,s1,18081742 <ShowShort+0x24>
}
    18081768:	70a2                	ld	ra,40(sp)
    1808176a:	7402                	ld	s0,32(sp)
    1808176c:	64e2                	ld	s1,24(sp)
    1808176e:	6942                	ld	s2,16(sp)
    18081770:	69a2                	ld	s3,8(sp)
    18081772:	6a02                	ld	s4,0(sp)
    18081774:	6145                	addi	sp,sp,48
    18081776:	8082                	ret
			ShowHexChar( pCurBuf );
    18081778:	854e                	mv	a0,s3
    1808177a:	a1bff0ef          	jal	ra,18081194 <ShowHexChar>
			rlSendString( "\r\n" );
    1808177e:	8552                	mv	a0,s4
    18081780:	9f2ff0ef          	jal	ra,18080972 <rlSendString>
			if( CtrlBreak( )){
    18081784:	a24ff0ef          	jal	ra,180809a8 <CtrlBreak>
    18081788:	f165                	bnez	a0,18081768 <ShowShort+0x4a>
	for( endPbuf = (( unsigned long ) pbuf ) + length ; ( unsigned long )pbuf < endPbuf ; pbuf++ ){
    1808178a:	fa946ce3          	bltu	s0,s1,18081742 <ShowShort+0x24>
    1808178e:	bfe9                	j	18081768 <ShowShort+0x4a>
			PrintIntHex(( unsigned long ) pbuf , 0x08 );
    18081790:	45a1                	li	a1,8
    18081792:	8522                	mv	a0,s0
    18081794:	a59ff0ef          	jal	ra,180811ec <PrintIntHex>
    18081798:	89a2                	mv	s3,s0
    1808179a:	b77d                	j	18081748 <ShowShort+0x2a>

000000001808179c <ShowLong>:
{
    1808179c:	7179                	addi	sp,sp,-48
    1808179e:	ec26                	sd	s1,24(sp)
    180817a0:	f406                	sd	ra,40(sp)
    180817a2:	f022                	sd	s0,32(sp)
    180817a4:	e84a                	sd	s2,16(sp)
    180817a6:	e44e                	sd	s3,8(sp)
    180817a8:	e052                	sd	s4,0(sp)
	for( endPbuf = (( unsigned long ) pbuf ) + length ; ( unsigned long )pbuf < endPbuf ; pbuf++ ){
    180817aa:	00b504b3          	add	s1,a0,a1
    180817ae:	02957b63          	bgeu	a0,s1,180817e4 <ShowLong+0x48>
    180817b2:	89aa                	mv	s3,a0
    180817b4:	842a                	mv	s0,a0
		if(((( unsigned long ) pbuf ) & 0x0000000C ) == 0x0000000C ){
    180817b6:	4931                	li	s2,12
			rlSendString( "\r\n" );
    180817b8:	00011a17          	auipc	s4,0x11
    180817bc:	bb0a0a13          	addi	s4,s4,-1104 # 18092368 <dwmci_ops+0x40>
		if(((( unsigned long ) pbuf ) & 0x0000000F ) == 0x00000000 ){
    180817c0:	00f47793          	andi	a5,s0,15
    180817c4:	c7a1                	beqz	a5,1808180c <ShowLong+0x70>
		_putc( ' ' );
    180817c6:	02000513          	li	a0,32
    180817ca:	97eff0ef          	jal	ra,18080948 <_putc>
		PrintIntHex(( unsigned long )( *pbuf ) , 0x00000008 );
    180817ce:	6008                	ld	a0,0(s0)
    180817d0:	45a1                	li	a1,8
    180817d2:	a1bff0ef          	jal	ra,180811ec <PrintIntHex>
		if(((( unsigned long ) pbuf ) & 0x0000000C ) == 0x0000000C ){
    180817d6:	00c47793          	andi	a5,s0,12
	for( endPbuf = (( unsigned long ) pbuf ) + length ; ( unsigned long )pbuf < endPbuf ; pbuf++ ){
    180817da:	0421                	addi	s0,s0,8
		if(((( unsigned long ) pbuf ) & 0x0000000C ) == 0x0000000C ){
    180817dc:	01278c63          	beq	a5,s2,180817f4 <ShowLong+0x58>
	for( endPbuf = (( unsigned long ) pbuf ) + length ; ( unsigned long )pbuf < endPbuf ; pbuf++ ){
    180817e0:	fe9460e3          	bltu	s0,s1,180817c0 <ShowLong+0x24>
}
    180817e4:	70a2                	ld	ra,40(sp)
    180817e6:	7402                	ld	s0,32(sp)
    180817e8:	64e2                	ld	s1,24(sp)
    180817ea:	6942                	ld	s2,16(sp)
    180817ec:	69a2                	ld	s3,8(sp)
    180817ee:	6a02                	ld	s4,0(sp)
    180817f0:	6145                	addi	sp,sp,48
    180817f2:	8082                	ret
			ShowHexChar( pCurBuf );
    180817f4:	854e                	mv	a0,s3
    180817f6:	99fff0ef          	jal	ra,18081194 <ShowHexChar>
			rlSendString( "\r\n" );
    180817fa:	8552                	mv	a0,s4
    180817fc:	976ff0ef          	jal	ra,18080972 <rlSendString>
			if( CtrlBreak( )){
    18081800:	9a8ff0ef          	jal	ra,180809a8 <CtrlBreak>
    18081804:	f165                	bnez	a0,180817e4 <ShowLong+0x48>
	for( endPbuf = (( unsigned long ) pbuf ) + length ; ( unsigned long )pbuf < endPbuf ; pbuf++ ){
    18081806:	fa946de3          	bltu	s0,s1,180817c0 <ShowLong+0x24>
    1808180a:	bfe9                	j	180817e4 <ShowLong+0x48>
			PrintIntHex(( unsigned long ) pbuf , 0x08 );
    1808180c:	45a1                	li	a1,8
    1808180e:	8522                	mv	a0,s0
    18081810:	9ddff0ef          	jal	ra,180811ec <PrintIntHex>
    18081814:	89a2                	mv	s3,s0
    18081816:	bf45                	j	180817c6 <ShowLong+0x2a>

0000000018081818 <ShowProc>:
{
    18081818:	7179                	addi	sp,sp,-48
    1808181a:	ec26                	sd	s1,24(sp)
    1808181c:	f406                	sd	ra,40(sp)
    1808181e:	f022                	sd	s0,32(sp)
    18081820:	e84a                	sd	s2,16(sp)
    18081822:	e44e                	sd	s3,8(sp)
	if( argc <= 0x03 ){
    18081824:	478d                	li	a5,3
{
    18081826:	84b2                	mv	s1,a2
	if( argc <= 0x03 ){
    18081828:	0ab7c763          	blt	a5,a1,180818d6 <ShowProc+0xbe>
			if( argc == 0x01 ){
    1808182c:	4785                	li	a5,1
    1808182e:	12f58f63          	beq	a1,a5,1808196c <ShowProc+0x154>
			if( argc == 0x02 ){
    18081832:	6608                	ld	a0,8(a2)
    18081834:	4789                	li	a5,2
    18081836:	00054803          	lbu	a6,0(a0)
    1808183a:	22f58363          	beq	a1,a5,18081a60 <ShowProc+0x248>
	while(( *srccmd == *basecmd ) && ( *srccmd != 0x00 )){
    1808183e:	06200793          	li	a5,98
    18081842:	0ef81863          	bne	a6,a5,18081932 <ShowProc+0x11a>
    18081846:	87aa                	mv	a5,a0
    18081848:	07900693          	li	a3,121
    1808184c:	00011717          	auipc	a4,0x11
    18081850:	96470713          	addi	a4,a4,-1692 # 180921b0 <CmdHandle+0x300>
    18081854:	a029                	j	1808185e <ShowProc+0x46>
    18081856:	36068d63          	beqz	a3,18081bd0 <ShowProc+0x3b8>
    1808185a:	00174683          	lbu	a3,1(a4)
		srccmd++;
    1808185e:	0785                	addi	a5,a5,1
	while(( *srccmd == *basecmd ) && ( *srccmd != 0x00 )){
    18081860:	0007c583          	lbu	a1,0(a5)
		basecmd++;
    18081864:	0705                	addi	a4,a4,1
	while(( *srccmd == *basecmd ) && ( *srccmd != 0x00 )){
    18081866:	fed588e3          	beq	a1,a3,18081856 <ShowProc+0x3e>
	mode	= 0x000000;
    1808186a:	0015b413          	seqz	s0,a1
	while(( *srccmd == *basecmd ) && ( *srccmd != 0x00 )){
    1808186e:	06c00793          	li	a5,108
    18081872:	0ef81a63          	bne	a6,a5,18081966 <ShowProc+0x14e>
    18081876:	87aa                	mv	a5,a0
    18081878:	06f00693          	li	a3,111
    1808187c:	00011717          	auipc	a4,0x11
    18081880:	94470713          	addi	a4,a4,-1724 # 180921c0 <CmdHandle+0x310>
    18081884:	a029                	j	1808188e <ShowProc+0x76>
    18081886:	38068163          	beqz	a3,18081c08 <ShowProc+0x3f0>
    1808188a:	00174683          	lbu	a3,1(a4)
		srccmd++;
    1808188e:	0785                	addi	a5,a5,1
	while(( *srccmd == *basecmd ) && ( *srccmd != 0x00 )){
    18081890:	0007c583          	lbu	a1,0(a5)
		basecmd++;
    18081894:	0705                	addi	a4,a4,1
	while(( *srccmd == *basecmd ) && ( *srccmd != 0x00 )){
    18081896:	fed588e3          	beq	a1,a3,18081886 <ShowProc+0x6e>
	if( *srccmd == 0x00 ){
    1808189a:	689c                	ld	a5,16(s1)
    1808189c:	89be                	mv	s3,a5
    1808189e:	36058663          	beqz	a1,18081c0a <ShowProc+0x3f2>
			if(( mode == 0x00 ) && (( argv[0x01][0x00] < '0' ) || ( argv[0x01][0x00] > '9' ))){
    180818a2:	32041e63          	bnez	s0,18081bde <ShowProc+0x3c6>
    180818a6:	fd08081b          	addiw	a6,a6,-48
    180818aa:	0ff87813          	andi	a6,a6,255
    180818ae:	47a5                	li	a5,9
    180818b0:	3707f563          	bgeu	a5,a6,18081c1a <ShowProc+0x402>
				pStart	= A2Int( argv[2] );
    180818b4:	854e                	mv	a0,s3
    180818b6:	fd6ff0ef          	jal	ra,1808108c <A2Int>
				rlSendString( "\r\nCMD format: show [ byte | half | long ] startAddress [ length ]" );
    180818ba:	00011517          	auipc	a0,0x11
    180818be:	90e50513          	addi	a0,a0,-1778 # 180921c8 <CmdHandle+0x318>
    180818c2:	8b0ff0ef          	jal	ra,18080972 <rlSendString>
}
    180818c6:	70a2                	ld	ra,40(sp)
    180818c8:	7402                	ld	s0,32(sp)
    180818ca:	64e2                	ld	s1,24(sp)
    180818cc:	6942                	ld	s2,16(sp)
    180818ce:	69a2                	ld	s3,8(sp)
		return 1;
    180818d0:	4505                	li	a0,1
}
    180818d2:	6145                	addi	sp,sp,48
    180818d4:	8082                	ret
	pStart	= A2Int( argv[2] );
    180818d6:	6a08                	ld	a0,16(a2)
    180818d8:	fb4ff0ef          	jal	ra,1808108c <A2Int>
    180818dc:	892a                	mv	s2,a0
		pEnd	= A2Int( argv[3] );
    180818de:	6c88                	ld	a0,24(s1)
    180818e0:	facff0ef          	jal	ra,1808108c <A2Int>
		if( CmdString( argv[1] , "byte" )){
    180818e4:	649c                	ld	a5,8(s1)
	while(( *srccmd == *basecmd ) && ( *srccmd != 0x00 )){
    180818e6:	06200713          	li	a4,98
    180818ea:	0007c603          	lbu	a2,0(a5)
    180818ee:	22e61f63          	bne	a2,a4,18081b2c <ShowProc+0x314>
    180818f2:	07900693          	li	a3,121
    180818f6:	00011717          	auipc	a4,0x11
    180818fa:	8ba70713          	addi	a4,a4,-1862 # 180921b0 <CmdHandle+0x300>
    180818fe:	a029                	j	18081908 <ShowProc+0xf0>
    18081900:	0e068e63          	beqz	a3,180819fc <ShowProc+0x1e4>
    18081904:	00174683          	lbu	a3,1(a4)
		srccmd++;
    18081908:	0785                	addi	a5,a5,1
	while(( *srccmd == *basecmd ) && ( *srccmd != 0x00 )){
    1808190a:	0007c603          	lbu	a2,0(a5)
		basecmd++;
    1808190e:	0705                	addi	a4,a4,1
	while(( *srccmd == *basecmd ) && ( *srccmd != 0x00 )){
    18081910:	fed608e3          	beq	a2,a3,18081900 <ShowProc+0xe8>
	if( *srccmd == 0x00 ){
    18081914:	c665                	beqz	a2,180819fc <ShowProc+0x1e4>
		rlSendString( "\r\n show [ byte | half | long ] startAddress [ length ]" );
    18081916:	00011517          	auipc	a0,0x11
    1808191a:	8fa50513          	addi	a0,a0,-1798 # 18092210 <CmdHandle+0x360>
    1808191e:	854ff0ef          	jal	ra,18080972 <rlSendString>
}
    18081922:	70a2                	ld	ra,40(sp)
    18081924:	7402                	ld	s0,32(sp)
    18081926:	64e2                	ld	s1,24(sp)
    18081928:	6942                	ld	s2,16(sp)
    1808192a:	69a2                	ld	s3,8(sp)
		retflag	= -2;
    1808192c:	5579                	li	a0,-2
}
    1808192e:	6145                	addi	sp,sp,48
    18081930:	8082                	ret
	while(( *srccmd == *basecmd ) && ( *srccmd != 0x00 )){
    18081932:	06800793          	li	a5,104
	mode	= 0x000000;
    18081936:	00183413          	seqz	s0,a6
	while(( *srccmd == *basecmd ) && ( *srccmd != 0x00 )){
    1808193a:	2cf81563          	bne	a6,a5,18081c04 <ShowProc+0x3ec>
    1808193e:	87aa                	mv	a5,a0
    18081940:	06100693          	li	a3,97
    18081944:	00011717          	auipc	a4,0x11
    18081948:	87470713          	addi	a4,a4,-1932 # 180921b8 <CmdHandle+0x308>
    1808194c:	a029                	j	18081956 <ShowProc+0x13e>
    1808194e:	28068563          	beqz	a3,18081bd8 <ShowProc+0x3c0>
    18081952:	00174683          	lbu	a3,1(a4)
		srccmd++;
    18081956:	0785                	addi	a5,a5,1
	while(( *srccmd == *basecmd ) && ( *srccmd != 0x00 )){
    18081958:	0007c583          	lbu	a1,0(a5)
		basecmd++;
    1808195c:	0705                	addi	a4,a4,1
	while(( *srccmd == *basecmd ) && ( *srccmd != 0x00 )){
    1808195e:	fed588e3          	beq	a1,a3,1808194e <ShowProc+0x136>
	if( *srccmd == 0x00 ){
    18081962:	26058b63          	beqz	a1,18081bd8 <ShowProc+0x3c0>
    18081966:	0104b983          	ld	s3,16(s1)
    1808196a:	bf25                	j	180818a2 <ShowProc+0x8a>
				pStart	= ( unsigned long )pCurShow;
    1808196c:	00011797          	auipc	a5,0x11
    18081970:	d0c78793          	addi	a5,a5,-756 # 18092678 <pCurShow>
    18081974:	0007b903          	ld	s2,0(a5)
				pEnd	= Showlength;
    18081978:	00011797          	auipc	a5,0x11
    1808197c:	cd878793          	addi	a5,a5,-808 # 18092650 <_data_lma>
    18081980:	6384                	ld	s1,0(a5)
			mode		= showMode;
    18081982:	00011417          	auipc	s0,0x11
    18081986:	cd644403          	lbu	s0,-810(s0) # 18092658 <showMode>
		if( mode != 0x10 ){
    1808198a:	47c1                	li	a5,16
    1808198c:	f2f407e3          	beq	s0,a5,180818ba <ShowProc+0xa2>
		pStart	&= 0xFFFFFFF0;
    18081990:	4705                	li	a4,1
		pEnd	+= pStart;
    18081992:	009907b3          	add	a5,s2,s1
		pStart	&= 0xFFFFFFF0;
    18081996:	1702                	slli	a4,a4,0x20
    18081998:	1741                	addi	a4,a4,-16
		pEnd	+= 0x0f;
    1808199a:	07bd                	addi	a5,a5,15
		pStart	&= 0xFFFFFFF0;
    1808199c:	00e97533          	and	a0,s2,a4
		pEnd	&= 0xFFFFFFF0;
    180819a0:	8ff9                	and	a5,a5,a4
		pEnd	-= pStart;
    180819a2:	40a785b3          	sub	a1,a5,a0
			pCurShow	= ( void * )( pStart + pEnd );
    180819a6:	00011717          	auipc	a4,0x11
    180819aa:	ccf73923          	sd	a5,-814(a4) # 18092678 <pCurShow>
			Showlength	= pEnd;
    180819ae:	00011797          	auipc	a5,0x11
    180819b2:	cab7b123          	sd	a1,-862(a5) # 18092650 <_data_lma>
			showMode	= mode;
    180819b6:	00011797          	auipc	a5,0x11
    180819ba:	ca878123          	sb	s0,-862(a5) # 18092658 <showMode>
		switch( mode ){
    180819be:	4789                	li	a5,2
    180819c0:	08f40563          	beq	s0,a5,18081a4a <ShowProc+0x232>
    180819c4:	4791                	li	a5,4
    180819c6:	00f41d63          	bne	s0,a5,180819e0 <ShowProc+0x1c8>
				ShowLong(( void * ) pStart , pEnd );
    180819ca:	2581                	sext.w	a1,a1
    180819cc:	dd1ff0ef          	jal	ra,1808179c <ShowLong>
}
    180819d0:	70a2                	ld	ra,40(sp)
    180819d2:	7402                	ld	s0,32(sp)
    180819d4:	64e2                	ld	s1,24(sp)
    180819d6:	6942                	ld	s2,16(sp)
    180819d8:	69a2                	ld	s3,8(sp)
		return 1;
    180819da:	4505                	li	a0,1
}
    180819dc:	6145                	addi	sp,sp,48
    180819de:	8082                	ret
		switch( mode ){
    180819e0:	4785                	li	a5,1
    180819e2:	ecf41ce3          	bne	s0,a5,180818ba <ShowProc+0xa2>
				ShowByte(( void * ) pStart , pEnd );
    180819e6:	2581                	sext.w	a1,a1
    180819e8:	ca5ff0ef          	jal	ra,1808168c <ShowByte>
}
    180819ec:	70a2                	ld	ra,40(sp)
    180819ee:	7402                	ld	s0,32(sp)
    180819f0:	64e2                	ld	s1,24(sp)
    180819f2:	6942                	ld	s2,16(sp)
    180819f4:	69a2                	ld	s3,8(sp)
		return 1;
    180819f6:	4505                	li	a0,1
}
    180819f8:	6145                	addi	sp,sp,48
    180819fa:	8082                	ret
			pStart	&= 0xFFFFFFF0;
    180819fc:	4785                	li	a5,1
			pEnd	+= pStart;
    180819fe:	00a90433          	add	s0,s2,a0
			pStart	&= 0xFFFFFFF0;
    18081a02:	1782                	slli	a5,a5,0x20
    18081a04:	17c1                	addi	a5,a5,-16
			pEnd	+= 0x0f;
    18081a06:	043d                	addi	s0,s0,15
			pStart	&= 0xFFFFFFF0;
    18081a08:	00f97933          	and	s2,s2,a5
			pEnd	&= 0xFFFFFFF0;
    18081a0c:	8c7d                	and	s0,s0,a5
			pEnd	-= pStart;
    18081a0e:	41240433          	sub	s0,s0,s2
			ShowByte(( void * ) pStart , pEnd );
    18081a12:	0004059b          	sext.w	a1,s0
    18081a16:	854a                	mv	a0,s2
    18081a18:	c75ff0ef          	jal	ra,1808168c <ShowByte>
			mode	=	0x01;
    18081a1c:	4785                	li	a5,1
		pCurShow	= ( void * )( pStart + pEnd );
    18081a1e:	008904b3          	add	s1,s2,s0
		Showlength	= pEnd;
    18081a22:	00011717          	auipc	a4,0x11
    18081a26:	c2873723          	sd	s0,-978(a4) # 18092650 <_data_lma>
}
    18081a2a:	70a2                	ld	ra,40(sp)
    18081a2c:	7402                	ld	s0,32(sp)
		pCurShow	= ( void * )( pStart + pEnd );
    18081a2e:	00011717          	auipc	a4,0x11
    18081a32:	c4973523          	sd	s1,-950(a4) # 18092678 <pCurShow>
		showMode	= mode;
    18081a36:	00011717          	auipc	a4,0x11
    18081a3a:	c2f70123          	sb	a5,-990(a4) # 18092658 <showMode>
}
    18081a3e:	64e2                	ld	s1,24(sp)
    18081a40:	6942                	ld	s2,16(sp)
    18081a42:	69a2                	ld	s3,8(sp)
		showMode	= mode;
    18081a44:	4505                	li	a0,1
}
    18081a46:	6145                	addi	sp,sp,48
    18081a48:	8082                	ret
				ShowShort(( void * ) pStart , pEnd );
    18081a4a:	2581                	sext.w	a1,a1
    18081a4c:	cd3ff0ef          	jal	ra,1808171e <ShowShort>
}
    18081a50:	70a2                	ld	ra,40(sp)
    18081a52:	7402                	ld	s0,32(sp)
    18081a54:	64e2                	ld	s1,24(sp)
    18081a56:	6942                	ld	s2,16(sp)
    18081a58:	69a2                	ld	s3,8(sp)
		return 1;
    18081a5a:	4505                	li	a0,1
}
    18081a5c:	6145                	addi	sp,sp,48
    18081a5e:	8082                	ret
	while(( *srccmd == *basecmd ) && ( *srccmd != 0x00 )){
    18081a60:	06200793          	li	a5,98
    18081a64:	06f81863          	bne	a6,a5,18081ad4 <ShowProc+0x2bc>
    18081a68:	87aa                	mv	a5,a0
    18081a6a:	07900693          	li	a3,121
    18081a6e:	00010717          	auipc	a4,0x10
    18081a72:	74270713          	addi	a4,a4,1858 # 180921b0 <CmdHandle+0x300>
    18081a76:	a029                	j	18081a80 <ShowProc+0x268>
    18081a78:	1a068963          	beqz	a3,18081c2a <ShowProc+0x412>
    18081a7c:	00174683          	lbu	a3,1(a4)
		srccmd++;
    18081a80:	0785                	addi	a5,a5,1
	while(( *srccmd == *basecmd ) && ( *srccmd != 0x00 )){
    18081a82:	0007c583          	lbu	a1,0(a5)
		basecmd++;
    18081a86:	0705                	addi	a4,a4,1
	while(( *srccmd == *basecmd ) && ( *srccmd != 0x00 )){
    18081a88:	feb688e3          	beq	a3,a1,18081a78 <ShowProc+0x260>
	mode	= 0x000000;
    18081a8c:	0015b413          	seqz	s0,a1
	while(( *srccmd == *basecmd ) && ( *srccmd != 0x00 )){
    18081a90:	06c00793          	li	a5,108
    18081a94:	06f81a63          	bne	a6,a5,18081b08 <ShowProc+0x2f0>
    18081a98:	87aa                	mv	a5,a0
    18081a9a:	06f00693          	li	a3,111
    18081a9e:	00010717          	auipc	a4,0x10
    18081aa2:	72270713          	addi	a4,a4,1826 # 180921c0 <CmdHandle+0x310>
    18081aa6:	a021                	j	18081aae <ShowProc+0x296>
    18081aa8:	ca91                	beqz	a3,18081abc <ShowProc+0x2a4>
    18081aaa:	00174683          	lbu	a3,1(a4)
		srccmd++;
    18081aae:	0785                	addi	a5,a5,1
	while(( *srccmd == *basecmd ) && ( *srccmd != 0x00 )){
    18081ab0:	0007c603          	lbu	a2,0(a5)
		basecmd++;
    18081ab4:	0705                	addi	a4,a4,1
	while(( *srccmd == *basecmd ) && ( *srccmd != 0x00 )){
    18081ab6:	fec689e3          	beq	a3,a2,18081aa8 <ShowProc+0x290>
	if( *srccmd == 0x00 ){
    18081aba:	e639                	bnez	a2,18081b08 <ShowProc+0x2f0>
				pStart		= ( unsigned long )pCurShow;
    18081abc:	00011797          	auipc	a5,0x11
    18081ac0:	bbc78793          	addi	a5,a5,-1092 # 18092678 <pCurShow>
    18081ac4:	6388                	ld	a0,0(a5)
				pEnd		= Showlength;
    18081ac6:	00011797          	auipc	a5,0x11
    18081aca:	b8a78793          	addi	a5,a5,-1142 # 18092650 <_data_lma>
    18081ace:	6384                	ld	s1,0(a5)
					mode	= 0x04;
    18081ad0:	4411                	li	s0,4
    18081ad2:	aa31                	j	18081bee <ShowProc+0x3d6>
	while(( *srccmd == *basecmd ) && ( *srccmd != 0x00 )){
    18081ad4:	06800793          	li	a5,104
	mode	= 0x000000;
    18081ad8:	00183413          	seqz	s0,a6
	while(( *srccmd == *basecmd ) && ( *srccmd != 0x00 )){
    18081adc:	16f81563          	bne	a6,a5,18081c46 <ShowProc+0x42e>
    18081ae0:	87aa                	mv	a5,a0
    18081ae2:	06100693          	li	a3,97
    18081ae6:	00010717          	auipc	a4,0x10
    18081aea:	6d270713          	addi	a4,a4,1746 # 180921b8 <CmdHandle+0x308>
    18081aee:	a029                	j	18081af8 <ShowProc+0x2e0>
    18081af0:	14068963          	beqz	a3,18081c42 <ShowProc+0x42a>
    18081af4:	00174683          	lbu	a3,1(a4)
		srccmd++;
    18081af8:	0785                	addi	a5,a5,1
	while(( *srccmd == *basecmd ) && ( *srccmd != 0x00 )){
    18081afa:	0007c603          	lbu	a2,0(a5)
		basecmd++;
    18081afe:	0705                	addi	a4,a4,1
	while(( *srccmd == *basecmd ) && ( *srccmd != 0x00 )){
    18081b00:	fed608e3          	beq	a2,a3,18081af0 <ShowProc+0x2d8>
	if( *srccmd == 0x00 ){
    18081b04:	12060f63          	beqz	a2,18081c42 <ShowProc+0x42a>
				if(( mode == 0x00 ) && (( argv[0x01][0x00] < '0' ) || ( argv[0x01][0x00] > '9' ))){
    18081b08:	12041263          	bnez	s0,18081c2c <ShowProc+0x414>
    18081b0c:	fd08079b          	addiw	a5,a6,-48
    18081b10:	0ff7f793          	andi	a5,a5,255
    18081b14:	4725                	li	a4,9
    18081b16:	daf762e3          	bltu	a4,a5,180818ba <ShowProc+0xa2>
				pEnd		= Showlength;
    18081b1a:	00011797          	auipc	a5,0x11
    18081b1e:	b3678793          	addi	a5,a5,-1226 # 18092650 <_data_lma>
    18081b22:	6384                	ld	s1,0(a5)
					pStart	= A2Int( argv[1] );
    18081b24:	d68ff0ef          	jal	ra,1808108c <A2Int>
    18081b28:	892a                	mv	s2,a0
		if( mode == 0x00 ){
    18081b2a:	bda1                	j	18081982 <ShowProc+0x16a>
	if( *srccmd == 0x00 ){
    18081b2c:	ec0608e3          	beqz	a2,180819fc <ShowProc+0x1e4>
	while(( *srccmd == *basecmd ) && ( *srccmd != 0x00 )){
    18081b30:	06800593          	li	a1,104
    18081b34:	06100693          	li	a3,97
    18081b38:	00010717          	auipc	a4,0x10
    18081b3c:	68070713          	addi	a4,a4,1664 # 180921b8 <CmdHandle+0x308>
    18081b40:	00b60663          	beq	a2,a1,18081b4c <ShowProc+0x334>
    18081b44:	a835                	j	18081b80 <ShowProc+0x368>
    18081b46:	ca99                	beqz	a3,18081b5c <ShowProc+0x344>
    18081b48:	00174683          	lbu	a3,1(a4)
		srccmd++;
    18081b4c:	0785                	addi	a5,a5,1
	while(( *srccmd == *basecmd ) && ( *srccmd != 0x00 )){
    18081b4e:	0007c603          	lbu	a2,0(a5)
		basecmd++;
    18081b52:	0705                	addi	a4,a4,1
	while(( *srccmd == *basecmd ) && ( *srccmd != 0x00 )){
    18081b54:	fed609e3          	beq	a2,a3,18081b46 <ShowProc+0x32e>
	if( *srccmd == 0x00 ){
    18081b58:	da061fe3          	bnez	a2,18081916 <ShowProc+0xfe>
			pStart	&= 0xFFFFFFF0;
    18081b5c:	4785                	li	a5,1
			pEnd	+= pStart;
    18081b5e:	00a90433          	add	s0,s2,a0
			pStart	&= 0xFFFFFFF0;
    18081b62:	1782                	slli	a5,a5,0x20
    18081b64:	17c1                	addi	a5,a5,-16
			pEnd	+= 0x0f;
    18081b66:	043d                	addi	s0,s0,15
			pStart	&= 0xFFFFFFF0;
    18081b68:	00f97933          	and	s2,s2,a5
			pEnd	&= 0xFFFFFFF0;
    18081b6c:	8c7d                	and	s0,s0,a5
			pEnd	-= pStart;
    18081b6e:	41240433          	sub	s0,s0,s2
			ShowShort(( void * ) pStart , pEnd );
    18081b72:	0004059b          	sext.w	a1,s0
    18081b76:	854a                	mv	a0,s2
    18081b78:	ba7ff0ef          	jal	ra,1808171e <ShowShort>
			mode	= 	0x02;
    18081b7c:	4789                	li	a5,2
    18081b7e:	b545                	j	18081a1e <ShowProc+0x206>
	while(( *srccmd == *basecmd ) && ( *srccmd != 0x00 )){
    18081b80:	06c00593          	li	a1,108
    18081b84:	06f00693          	li	a3,111
    18081b88:	00010717          	auipc	a4,0x10
    18081b8c:	63870713          	addi	a4,a4,1592 # 180921c0 <CmdHandle+0x310>
    18081b90:	00b60663          	beq	a2,a1,18081b9c <ShowProc+0x384>
    18081b94:	b349                	j	18081916 <ShowProc+0xfe>
    18081b96:	ca99                	beqz	a3,18081bac <ShowProc+0x394>
    18081b98:	00174683          	lbu	a3,1(a4)
		srccmd++;
    18081b9c:	0785                	addi	a5,a5,1
	while(( *srccmd == *basecmd ) && ( *srccmd != 0x00 )){
    18081b9e:	0007c603          	lbu	a2,0(a5)
		basecmd++;
    18081ba2:	0705                	addi	a4,a4,1
	while(( *srccmd == *basecmd ) && ( *srccmd != 0x00 )){
    18081ba4:	fed609e3          	beq	a2,a3,18081b96 <ShowProc+0x37e>
	if( *srccmd == 0x00 ){
    18081ba8:	d60617e3          	bnez	a2,18081916 <ShowProc+0xfe>
			pStart	&= 0xFFFFFFF0;
    18081bac:	4785                	li	a5,1
			pEnd	+= pStart;
    18081bae:	00a90433          	add	s0,s2,a0
			pStart	&= 0xFFFFFFF0;
    18081bb2:	1782                	slli	a5,a5,0x20
    18081bb4:	17c1                	addi	a5,a5,-16
			pEnd	+= 0x0f;
    18081bb6:	043d                	addi	s0,s0,15
			pStart	&= 0xFFFFFFF0;
    18081bb8:	00f97933          	and	s2,s2,a5
			pEnd	&= 0xFFFFFFF0;
    18081bbc:	8c7d                	and	s0,s0,a5
			pEnd	-= pStart;
    18081bbe:	41240433          	sub	s0,s0,s2
			ShowLong(( void * ) pStart , pEnd );
    18081bc2:	0004059b          	sext.w	a1,s0
    18081bc6:	854a                	mv	a0,s2
    18081bc8:	bd5ff0ef          	jal	ra,1808179c <ShowLong>
			mode	= 	0x04;
    18081bcc:	4791                	li	a5,4
    18081bce:	bd81                	j	18081a1e <ShowProc+0x206>
				mode	= 0x01;
    18081bd0:	4405                	li	s0,1
	if( *srccmd == 0x00 ){
    18081bd2:	0104b983          	ld	s3,16(s1)
    18081bd6:	b1f1                	j	180818a2 <ShowProc+0x8a>
    18081bd8:	0104b983          	ld	s3,16(s1)
				mode	= 0x02;
    18081bdc:	4409                	li	s0,2
			pEnd		= Showlength;
    18081bde:	00011797          	auipc	a5,0x11
    18081be2:	a7278793          	addi	a5,a5,-1422 # 18092650 <_data_lma>
    18081be6:	6384                	ld	s1,0(a5)
				pStart	= A2Int( argv[2] );
    18081be8:	854e                	mv	a0,s3
    18081bea:	ca2ff0ef          	jal	ra,1808108c <A2Int>
		pStart	&= 0xFFFFFFF0;
    18081bee:	4705                	li	a4,1
		pEnd	+= pStart;
    18081bf0:	009507b3          	add	a5,a0,s1
		pStart	&= 0xFFFFFFF0;
    18081bf4:	1702                	slli	a4,a4,0x20
    18081bf6:	1741                	addi	a4,a4,-16
		pEnd	+= 0x0f;
    18081bf8:	07bd                	addi	a5,a5,15
		pStart	&= 0xFFFFFFF0;
    18081bfa:	8d79                	and	a0,a0,a4
		pEnd	&= 0xFFFFFFF0;
    18081bfc:	8ff9                	and	a5,a5,a4
		pEnd	-= pStart;
    18081bfe:	40a785b3          	sub	a1,a5,a0
		if( mode != 0x10 ){
    18081c02:	b355                	j	180819a6 <ShowProc+0x18e>
	if( *srccmd == 0x00 ){
    18081c04:	c60815e3          	bnez	a6,1808186e <ShowProc+0x56>
    18081c08:	689c                	ld	a5,16(s1)
			pEnd		= Showlength;
    18081c0a:	00011717          	auipc	a4,0x11
    18081c0e:	a4670713          	addi	a4,a4,-1466 # 18092650 <_data_lma>
    18081c12:	6304                	ld	s1,0(a4)
			if( mode == 0x00 ){
    18081c14:	89be                	mv	s3,a5
				mode	= 0x04;
    18081c16:	4411                	li	s0,4
    18081c18:	bfc1                	j	18081be8 <ShowProc+0x3d0>
				pStart	= A2Int( argv[1] );
    18081c1a:	c72ff0ef          	jal	ra,1808108c <A2Int>
    18081c1e:	892a                	mv	s2,a0
				pEnd	= A2Int( argv[2] );
    18081c20:	854e                	mv	a0,s3
    18081c22:	c6aff0ef          	jal	ra,1808108c <A2Int>
    18081c26:	84aa                	mv	s1,a0
		if( mode == 0x00 ){
    18081c28:	bba9                	j	18081982 <ShowProc+0x16a>
					mode	= 0x01;
    18081c2a:	4405                	li	s0,1
				pStart		= ( unsigned long )pCurShow;
    18081c2c:	00011797          	auipc	a5,0x11
    18081c30:	a4c78793          	addi	a5,a5,-1460 # 18092678 <pCurShow>
    18081c34:	6388                	ld	a0,0(a5)
				pEnd		= Showlength;
    18081c36:	00011797          	auipc	a5,0x11
    18081c3a:	a1a78793          	addi	a5,a5,-1510 # 18092650 <_data_lma>
    18081c3e:	6384                	ld	s1,0(a5)
				if( mode == 0x00 ){
    18081c40:	b77d                	j	18081bee <ShowProc+0x3d6>
					mode	= 0x02;
    18081c42:	4409                	li	s0,2
    18081c44:	b7e5                	j	18081c2c <ShowProc+0x414>
	if( *srccmd == 0x00 ){
    18081c46:	e40815e3          	bnez	a6,18081a90 <ShowProc+0x278>
    18081c4a:	bd8d                	j	18081abc <ShowProc+0x2a4>

0000000018081c4c <sys_cmd_main_loop>:
	/* command line main loop */
	sys_cmd_main_loop();
}

void sys_cmd_main_loop(void)
{
    18081c4c:	1101                	addi	sp,sp,-32
	unsigned int retflag;
	rlSendString( "\r\n# " );
    18081c4e:	00010517          	auipc	a0,0x10
    18081c52:	5fa50513          	addi	a0,a0,1530 # 18092248 <CmdHandle+0x398>
{
    18081c56:	e822                	sd	s0,16(sp)
    18081c58:	e426                	sd	s1,8(sp)
    18081c5a:	ec06                	sd	ra,24(sp)
    18081c5c:	00011417          	auipc	s0,0x11
    18081c60:	a0440413          	addi	s0,s0,-1532 # 18092660 <StdHdl>
	rlSendString( "\r\n# " );
    18081c64:	d0ffe0ef          	jal	ra,18080972 <rlSendString>
	while( TRUE){
		retflag	= ReadString(( unsigned char * ) StdHdl->curbuf , 0x3FF );
		retflag	= piteCmdLine(( char * ) StdHdl->curbuf , ( char ** )StdHdl->argvList , 0x20 );
		StdHdl->curArgc	= retflag;
		RelayProc( );
		rlSendString( "\r\n# " );
    18081c68:	00010497          	auipc	s1,0x10
    18081c6c:	5e048493          	addi	s1,s1,1504 # 18092248 <CmdHandle+0x398>
		retflag	= ReadString(( unsigned char * ) StdHdl->curbuf , 0x3FF );
    18081c70:	601c                	ld	a5,0(s0)
    18081c72:	3ff00593          	li	a1,1023
    18081c76:	7bc8                	ld	a0,176(a5)
    18081c78:	a44ff0ef          	jal	ra,18080ebc <ReadString>
		retflag	= piteCmdLine(( char * ) StdHdl->curbuf , ( char ** )StdHdl->argvList , 0x20 );
    18081c7c:	600c                	ld	a1,0(s0)
    18081c7e:	02000613          	li	a2,32
    18081c82:	79c8                	ld	a0,176(a1)
    18081c84:	10058593          	addi	a1,a1,256
    18081c88:	aecff0ef          	jal	ra,18080f74 <piteCmdLine>
		StdHdl->curArgc	= retflag;
    18081c8c:	601c                	ld	a5,0(s0)
    18081c8e:	1502                	slli	a0,a0,0x20
    18081c90:	9101                	srli	a0,a0,0x20
    18081c92:	e7e8                	sd	a0,200(a5)
		RelayProc( );
    18081c94:	da4ff0ef          	jal	ra,18081238 <RelayProc>
		rlSendString( "\r\n# " );
    18081c98:	8526                	mv	a0,s1
    18081c9a:	cd9fe0ef          	jal	ra,18080972 <rlSendString>
    18081c9e:	bfc9                	j	18081c70 <sys_cmd_main_loop+0x24>

0000000018081ca0 <sys_cmd_proc>:
    StdHdl = ( P_TAG_CMD_T ) UART_CMD_BUFFER;
    18081ca0:	180107b7          	lui	a5,0x18010
    18081ca4:	00011717          	auipc	a4,0x11
    18081ca8:	9af73e23          	sd	a5,-1604(a4) # 18092660 <StdHdl>
    gcurCmd	= CMD_MAXNUM;
    18081cac:	4711                	li	a4,4
    18081cae:	00011697          	auipc	a3,0x11
    18081cb2:	9ae6a723          	sw	a4,-1618(a3) # 1809265c <gcurCmd>
{
    18081cb6:	1141                	addi	sp,sp,-16
	hdl->ver			= 0x100;
    18081cb8:	04000737          	lui	a4,0x4000
{
    18081cbc:	e406                	sd	ra,8(sp)
	hdl->ver			= 0x100;
    18081cbe:	10070713          	addi	a4,a4,256 # 4000100 <__stack_size+0x3fff900>
	hdl->startbuf		= ( unsigned  char * )hdl->buf + 0x80;
    18081cc2:	28078693          	addi	a3,a5,640 # 18010280 <__stack_size+0x1800fa80>
	hdl->ver			= 0x100;
    18081cc6:	c398                	sw	a4,0(a5)
	hdl->maxlen		= 0x3FF;
    18081cc8:	3ff00713          	li	a4,1023
    18081ccc:	f7d8                	sd	a4,168(a5)
	hdl->startbuf		= ( unsigned  char * )hdl->buf + 0x80;
    18081cce:	ebd4                	sd	a3,144(a5)
	hdl->curbuf		= hdl->startbuf;
    18081cd0:	fbd4                	sd	a3,176(a5)
	hdl->curitem		= 0x000000;
    18081cd2:	0a07b023          	sd	zero,160(a5)
	hdl->inputflag	= 0x00000000;
    18081cd6:	0807bc23          	sd	zero,152(a5)
	rlSendString( "\r\n" );
    18081cda:	00010517          	auipc	a0,0x10
    18081cde:	68e50513          	addi	a0,a0,1678 # 18092368 <dwmci_ops+0x40>
    18081ce2:	c91fe0ef          	jal	ra,18080972 <rlSendString>
	rlSendString( "(C)SiFive" );
    18081ce6:	00010517          	auipc	a0,0x10
    18081cea:	56a50513          	addi	a0,a0,1386 # 18092250 <CmdHandle+0x3a0>
    18081cee:	c85fe0ef          	jal	ra,18080972 <rlSendString>
	sys_cmd_main_loop();
    18081cf2:	f5bff0ef          	jal	ra,18081c4c <sys_cmd_main_loop>

0000000018081cf6 <uart_putchar>:


/* uart send out a char */
void uart_putchar(char c) 
{ 
	_putc(c);
    18081cf6:	c53fe06f          	j	18080948 <_putc>

0000000018081cfa <uart_getchar>:
} 

/* uart get in a char */
int uart_getchar(void) 
{ 
    18081cfa:	1141                	addi	sp,sp,-16
    18081cfc:	e406                	sd	ra,8(sp)
	int c;
	c=serial_getc();
    18081cfe:	cdbfe0ef          	jal	ra,180809d8 <serial_getc>

    return (char)c;

} 
    18081d02:	60a2                	ld	ra,8(sp)
    18081d04:	0ff57513          	andi	a0,a0,255
    18081d08:	0141                	addi	sp,sp,16
    18081d0a:	8082                	ret

0000000018081d0c <uart_waitchar>:


/* uart wait for a char */
char uart_waitchar(void) 
{ 
    18081d0c:	1141                	addi	sp,sp,-16
    18081d0e:	e406                	sd	ra,8(sp)
	c=serial_getc();
    18081d10:	cc9fe0ef          	jal	ra,180809d8 <serial_getc>
	int c; 
	do{
		c = uart_getchar();
	}while(c==-1);
	return (char)c; 
}
    18081d14:	60a2                	ld	ra,8(sp)
    18081d16:	0ff57513          	andi	a0,a0,255
    18081d1a:	0141                	addi	sp,sp,16
    18081d1c:	8082                	ret

0000000018081d1e <calcrc>:
int calcrc(char *ptr, int count) 
{ 
    int crc = 0; 
    char i; 
     
    while (--count >= 0) 
    18081d1e:	35fd                	addiw	a1,a1,-1
    18081d20:	00a5883b          	addw	a6,a1,a0
    18081d24:	40a8073b          	subw	a4,a6,a0
        crc = crc ^ (int) *ptr++ << 8; 
        i = 8; 
        do 
        { 
        if (crc & 0x8000) 
            crc = crc << 1 ^ 0x1021; 
    18081d28:	6585                	lui	a1,0x1
    int crc = 0; 
    18081d2a:	4781                	li	a5,0
        if (crc & 0x8000) 
    18081d2c:	6621                	lui	a2,0x8
            crc = crc << 1 ^ 0x1021; 
    18081d2e:	02158593          	addi	a1,a1,33 # 1021 <__stack_size+0x821>
    while (--count >= 0) 
    18081d32:	02074763          	bltz	a4,18081d60 <calcrc+0x42>
        crc = crc ^ (int) *ptr++ << 8; 
    18081d36:	0505                	addi	a0,a0,1
    18081d38:	fff54683          	lbu	a3,-1(a0)
    18081d3c:	4721                	li	a4,8
    18081d3e:	0086969b          	slliw	a3,a3,0x8
    18081d42:	8fb5                	xor	a5,a5,a3
            crc = crc << 1 ^ 0x1021; 
    18081d44:	377d                	addiw	a4,a4,-1
        if (crc & 0x8000) 
    18081d46:	00c7f6b3          	and	a3,a5,a2
    18081d4a:	0ff77713          	andi	a4,a4,255
    18081d4e:	0017979b          	slliw	a5,a5,0x1
    18081d52:	c291                	beqz	a3,18081d56 <calcrc+0x38>
            crc = crc << 1 ^ 0x1021; 
    18081d54:	8fad                	xor	a5,a5,a1
        else 
            crc = crc << 1; 
        } while(--i); 
    18081d56:	f77d                	bnez	a4,18081d44 <calcrc+0x26>
    while (--count >= 0) 
    18081d58:	40a8073b          	subw	a4,a6,a0
    18081d5c:	fc075de3          	bgez	a4,18081d36 <calcrc+0x18>
    } 
    return (crc); 
} 
    18081d60:	853e                	mv	a0,a5
    18081d62:	8082                	ret

0000000018081d64 <xmodem_recv_128>:
 	return TRUE;	 
}


UINT32 xmodem_recv_128(UINT8 *start_addr, UINT32 len)
{
    18081d64:	1101                	addi	sp,sp,-32
    18081d66:	e822                	sd	s0,16(sp)
    18081d68:	e426                	sd	s1,8(sp)
    18081d6a:	e04a                	sd	s2,0(sp)
    18081d6c:	ec06                	sd	ra,24(sp)
    18081d6e:	892a                	mv	s2,a0
    18081d70:	842a                	mv	s0,a0
    18081d72:	08450493          	addi	s1,a0,132
	c=serial_getc();
    18081d76:	c63fe0ef          	jal	ra,180809d8 <serial_getc>
	return (char)c; 
    18081d7a:	00a40023          	sb	a0,0(s0)
    18081d7e:	0405                	addi	s0,s0,1
	UINT32 i;
	char mych;
	
	ptr = start_addr;

 	 for(i=0;i<(2+DATA_BUFFER_SIZE_128+2);i++)                // receive 128 byte data
    18081d80:	fe849be3          	bne	s1,s0,18081d76 <xmodem_recv_128+0x12>
	}       		   	
	fr1 = *(UINT8 *)(ptr+0);
	fr2 = *(UINT8 *)(ptr+1);
	
	/* check frame */
	if( (fr1+fr2) != 0xff)
    18081d84:	00094783          	lbu	a5,0(s2)
    18081d88:	00194683          	lbu	a3,1(s2)
    18081d8c:	0ff00713          	li	a4,255
    18081d90:	97b6                	add	a5,a5,a3
    18081d92:	06e79063          	bne	a5,a4,18081df2 <xmodem_recv_128+0x8e>
		return FALSE;
	}
	/* check crc */
	fr1 = *(UINT8 *)(ptr+DATA_BUFFER_SIZE_128+2+0);
	fr2 = *(UINT8 *)(ptr+DATA_BUFFER_SIZE_128+2+1);
	crc1 = (fr1<<8)|fr2;
    18081d96:	08294803          	lbu	a6,130(s2)
    18081d9a:	08394783          	lbu	a5,131(s2)
            crc = crc << 1 ^ 0x1021; 
    18081d9e:	6585                	lui	a1,0x1
	crc1 = (fr1<<8)|fr2;
    18081da0:	0088181b          	slliw	a6,a6,0x8
    18081da4:	00f86833          	or	a6,a6,a5
    18081da8:	0108181b          	slliw	a6,a6,0x10
	crc2 = calcrc((char *)(ptr+2),128);
    18081dac:	00290513          	addi	a0,s2,2
	crc1 = (fr1<<8)|fr2;
    18081db0:	4108581b          	sraiw	a6,a6,0x10
    while (--count >= 0) 
    18081db4:	08290913          	addi	s2,s2,130
    int crc = 0; 
    18081db8:	4781                	li	a5,0
        if (crc & 0x8000) 
    18081dba:	6621                	lui	a2,0x8
            crc = crc << 1 ^ 0x1021; 
    18081dbc:	02158593          	addi	a1,a1,33 # 1021 <__stack_size+0x821>
        crc = crc ^ (int) *ptr++ << 8; 
    18081dc0:	0505                	addi	a0,a0,1
    18081dc2:	fff54683          	lbu	a3,-1(a0)
    18081dc6:	4721                	li	a4,8
    18081dc8:	0086969b          	slliw	a3,a3,0x8
    18081dcc:	8fb5                	xor	a5,a5,a3
            crc = crc << 1 ^ 0x1021; 
    18081dce:	377d                	addiw	a4,a4,-1
        if (crc & 0x8000) 
    18081dd0:	00c7f6b3          	and	a3,a5,a2
    18081dd4:	0ff77713          	andi	a4,a4,255
    18081dd8:	0017979b          	slliw	a5,a5,0x1
    18081ddc:	c291                	beqz	a3,18081de0 <xmodem_recv_128+0x7c>
            crc = crc << 1 ^ 0x1021; 
    18081dde:	8fad                	xor	a5,a5,a1
        } while(--i); 
    18081de0:	f77d                	bnez	a4,18081dce <xmodem_recv_128+0x6a>
    while (--count >= 0) 
    18081de2:	fd251fe3          	bne	a0,s2,18081dc0 <xmodem_recv_128+0x5c>
	if(crc1 != crc2)
    18081de6:	0107979b          	slliw	a5,a5,0x10
    18081dea:	4107d79b          	sraiw	a5,a5,0x10
    18081dee:	00f80c63          	beq	a6,a5,18081e06 <xmodem_recv_128+0xa2>
	_putc(c);
    18081df2:	4555                	li	a0,21
    18081df4:	b55fe0ef          	jal	ra,18080948 <_putc>
		uart_putchar(XMODEM_NAK);    
		return FALSE;
	}
	uart_putchar(XMODEM_ACK); 
	return TRUE;
}
    18081df8:	60e2                	ld	ra,24(sp)
    18081dfa:	6442                	ld	s0,16(sp)
    18081dfc:	64a2                	ld	s1,8(sp)
    18081dfe:	6902                	ld	s2,0(sp)
		return FALSE;
    18081e00:	4501                	li	a0,0
}
    18081e02:	6105                	addi	sp,sp,32
    18081e04:	8082                	ret
	_putc(c);
    18081e06:	4519                	li	a0,6
    18081e08:	b41fe0ef          	jal	ra,18080948 <_putc>
}
    18081e0c:	60e2                	ld	ra,24(sp)
    18081e0e:	6442                	ld	s0,16(sp)
    18081e10:	64a2                	ld	s1,8(sp)
    18081e12:	6902                	ld	s2,0(sp)
	return TRUE;
    18081e14:	4505                	li	a0,1
}
    18081e16:	6105                	addi	sp,sp,32
    18081e18:	8082                	ret

0000000018081e1a <xmodem_recv_file>:
{
    18081e1a:	711d                	addi	sp,sp,-96
    18081e1c:	180167b7          	lui	a5,0x18016
    18081e20:	f456                	sd	s5,40(sp)
    18081e22:	f05a                	sd	s6,32(sp)
    18081e24:	ec86                	sd	ra,88(sp)
    18081e26:	e8a2                	sd	s0,80(sp)
    18081e28:	e4a6                	sd	s1,72(sp)
    18081e2a:	e0ca                	sd	s2,64(sp)
    18081e2c:	fc4e                	sd	s3,56(sp)
    18081e2e:	f852                	sd	s4,48(sp)
    18081e30:	ec5e                	sd	s7,24(sp)
    18081e32:	e862                	sd	s8,16(sp)
    18081e34:	e466                	sd	s9,8(sp)
    18081e36:	8b2a                	mv	s6,a0
    18081e38:	8aae                	mv	s5,a1
		*(s_ptr + i) = 0xff;
    18081e3a:	56fd                	li	a3,-1
	for(i=0;i<(DATA_BUFFER_SIZE_128+1+2+2+1); i++)
    18081e3c:	08678713          	addi	a4,a5,134 # 18016086 <__stack_size+0x18015886>
		*(s_ptr + i) = 0xff;
    18081e40:	00d78023          	sb	a3,0(a5)
    18081e44:	0785                	addi	a5,a5,1
	for(i=0;i<(DATA_BUFFER_SIZE_128+1+2+2+1); i++)
    18081e46:	fee79de3          	bne	a5,a4,18081e40 <xmodem_recv_file+0x26>
                *(UINT8 *)(s_ptr+0)= mych;		// store SOH
    18081e4a:	18016437          	lui	s0,0x18016
	timeout = 0;
    18081e4e:	4a01                	li	s4,0
		switch(mych)
    18081e50:	4991                	li	s3,4
    18081e52:	4961                	li	s2,24
    18081e54:	4485                	li	s1,1
				if(timeout >= timeout_max)
    18081e56:	6c0d                	lui	s8,0x3
				ret = xmodem_recv_128(s_ptr+1, len);
    18081e58:	00140b93          	addi	s7,s0,1 # 18016001 <__stack_size+0x18015801>
					sys_memcpy(t_ptr, (s_ptr+1+2), DATA_BUFFER_SIZE_128);	// copy data to memory
    18081e5c:	00340c93          	addi	s9,s0,3
		mych = serial_nowait_getc();		
    18081e60:	cb5fe0ef          	jal	ra,18080b14 <serial_nowait_getc>
    18081e64:	0ff57793          	andi	a5,a0,255
    18081e68:	853e                	mv	a0,a5
		switch(mych)
    18081e6a:	03378563          	beq	a5,s3,18081e94 <xmodem_recv_file+0x7a>
    18081e6e:	07278a63          	beq	a5,s2,18081ee2 <xmodem_recv_file+0xc8>
    18081e72:	04978663          	beq	a5,s1,18081ebe <xmodem_recv_file+0xa4>
				timeout++;
    18081e76:	2a05                	addiw	s4,s4,1
				if(timeout >= timeout_max)
    18081e78:	ff8a64e3          	bltu	s4,s8,18081e60 <xmodem_recv_file+0x46>
	_putc(c);
    18081e7c:	04300513          	li	a0,67
    18081e80:	ac9fe0ef          	jal	ra,18080948 <_putc>
		mych = serial_nowait_getc();		
    18081e84:	c91fe0ef          	jal	ra,18080b14 <serial_nowait_getc>
    18081e88:	0ff57793          	andi	a5,a0,255
					timeout=0;
    18081e8c:	4a01                	li	s4,0
		mych = serial_nowait_getc();		
    18081e8e:	853e                	mv	a0,a5
		switch(mych)
    18081e90:	fd379fe3          	bne	a5,s3,18081e6e <xmodem_recv_file+0x54>
				*(UINT8 *)(s_ptr+DATA_BUFFER_SIZE_128+1+2+2)= mych;		// store EOT/EOF
    18081e94:	180167b7          	lui	a5,0x18016
    18081e98:	08a782a3          	sb	a0,133(a5) # 18016085 <__stack_size+0x18015885>
	_putc(c);
    18081e9c:	4519                	li	a0,6
    18081e9e:	aabfe0ef          	jal	ra,18080948 <_putc>
				return TRUE;
    18081ea2:	4505                	li	a0,1
}
    18081ea4:	60e6                	ld	ra,88(sp)
    18081ea6:	6446                	ld	s0,80(sp)
    18081ea8:	64a6                	ld	s1,72(sp)
    18081eaa:	6906                	ld	s2,64(sp)
    18081eac:	79e2                	ld	s3,56(sp)
    18081eae:	7a42                	ld	s4,48(sp)
    18081eb0:	7aa2                	ld	s5,40(sp)
    18081eb2:	7b02                	ld	s6,32(sp)
    18081eb4:	6be2                	ld	s7,24(sp)
    18081eb6:	6c42                	ld	s8,16(sp)
    18081eb8:	6ca2                	ld	s9,8(sp)
    18081eba:	6125                	addi	sp,sp,96
    18081ebc:	8082                	ret
				ret = xmodem_recv_128(s_ptr+1, len);
    18081ebe:	85d6                	mv	a1,s5
                *(UINT8 *)(s_ptr+0)= mych;		// store SOH
    18081ec0:	00f40023          	sb	a5,0(s0)
				ret = xmodem_recv_128(s_ptr+1, len);
    18081ec4:	855e                	mv	a0,s7
    18081ec6:	e9fff0ef          	jal	ra,18081d64 <xmodem_recv_128>
    18081eca:	2501                	sext.w	a0,a0
				if(ret == 1)
    18081ecc:	f8951ae3          	bne	a0,s1,18081e60 <xmodem_recv_file+0x46>
					sys_memcpy(t_ptr, (s_ptr+1+2), DATA_BUFFER_SIZE_128);	// copy data to memory
    18081ed0:	855a                	mv	a0,s6
    18081ed2:	08000613          	li	a2,128
    18081ed6:	85e6                	mv	a1,s9
    18081ed8:	01c000ef          	jal	ra,18081ef4 <sys_memcpy>
					t_ptr += DATA_BUFFER_SIZE_128;										// update the memory point
    18081edc:	080b0b13          	addi	s6,s6,128
    18081ee0:	b741                	j	18081e60 <xmodem_recv_file+0x46>
				*(UINT8 *)(s_ptr+DATA_BUFFER_SIZE_128+1+2+2)= mych;		// store CAN
    18081ee2:	180167b7          	lui	a5,0x18016
    18081ee6:	08a782a3          	sb	a0,133(a5) # 18016085 <__stack_size+0x18015885>
	_putc(c);
    18081eea:	4561                	li	a0,24
    18081eec:	a5dfe0ef          	jal	ra,18080948 <_putc>
				return FALSE;		
    18081ef0:	4501                	li	a0,0
    18081ef2:	bf4d                	j	18081ea4 <xmodem_recv_file+0x8a>

0000000018081ef4 <sys_memcpy>:
void * sys_memcpy(void *p_des,const void * p_src,unsigned long size)
{
	char *tmp = p_des;
	const char *s = p_src;

	while (size--)
    18081ef4:	ca19                	beqz	a2,18081f0a <sys_memcpy+0x16>
    18081ef6:	962a                	add	a2,a2,a0
	char *tmp = p_des;
    18081ef8:	87aa                	mv	a5,a0
		*tmp++ = *s++;
    18081efa:	0585                	addi	a1,a1,1
    18081efc:	fff5c703          	lbu	a4,-1(a1)
    18081f00:	0785                	addi	a5,a5,1
    18081f02:	fee78fa3          	sb	a4,-1(a5)
	while (size--)
    18081f06:	fec79ae3          	bne	a5,a2,18081efa <sys_memcpy+0x6>

	return p_des;
}
    18081f0a:	8082                	ret

0000000018081f0c <sys_memcmp>:
 int sys_memcmp(const void * cs,const void * ct,unsigned int count)
{
    18081f0c:	87aa                	mv	a5,a0
	const unsigned char *su1, *su2;
	int res = 0;

	for( su1 = cs, su2 = ct; 0 < count; ++su1, ++su2, count--)
    18081f0e:	ca1d                	beqz	a2,18081f44 <sys_memcmp+0x38>
		if ((res = *su1 - *su2) != 0)
    18081f10:	00054503          	lbu	a0,0(a0)
    18081f14:	0005c703          	lbu	a4,0(a1)
    18081f18:	9d19                	subw	a0,a0,a4
    18081f1a:	e505                	bnez	a0,18081f42 <sys_memcmp+0x36>
    18081f1c:	fff6069b          	addiw	a3,a2,-1
    18081f20:	1682                	slli	a3,a3,0x20
    18081f22:	9281                	srli	a3,a3,0x20
    18081f24:	0685                	addi	a3,a3,1
    18081f26:	96be                	add	a3,a3,a5
    18081f28:	a039                	j	18081f36 <sys_memcmp+0x2a>
    18081f2a:	0007c703          	lbu	a4,0(a5)
    18081f2e:	0005c603          	lbu	a2,0(a1)
    18081f32:	9f11                	subw	a4,a4,a2
    18081f34:	e711                	bnez	a4,18081f40 <sys_memcmp+0x34>
	for( su1 = cs, su2 = ct; 0 < count; ++su1, ++su2, count--)
    18081f36:	0785                	addi	a5,a5,1
    18081f38:	0585                	addi	a1,a1,1
    18081f3a:	fed798e3          	bne	a5,a3,18081f2a <sys_memcmp+0x1e>
    18081f3e:	8082                	ret
		if ((res = *su1 - *su2) != 0)
    18081f40:	853a                	mv	a0,a4
			break;
	return res;
}
    18081f42:	8082                	ret
	for( su1 = cs, su2 = ct; 0 < count; ++su1, ++su2, count--)
    18081f44:	4501                	li	a0,0
    18081f46:	8082                	ret

0000000018081f48 <_memcpy>:
void * _memcpy(void * dest,const void *src,unsigned int count)
{
	char *tmp = (char *) dest;
	const char *s = (char *) src;

	while (count--)
    18081f48:	fff6069b          	addiw	a3,a2,-1
    18081f4c:	ce11                	beqz	a2,18081f68 <_memcpy+0x20>
    18081f4e:	1682                	slli	a3,a3,0x20
    18081f50:	9281                	srli	a3,a3,0x20
    18081f52:	0685                	addi	a3,a3,1
    18081f54:	96aa                	add	a3,a3,a0
	char *tmp = (char *) dest;
    18081f56:	87aa                	mv	a5,a0
		*tmp++ = *s++;
    18081f58:	0585                	addi	a1,a1,1
    18081f5a:	fff5c703          	lbu	a4,-1(a1)
    18081f5e:	0785                	addi	a5,a5,1
    18081f60:	fee78fa3          	sb	a4,-1(a5)
	while (count--)
    18081f64:	fef69ae3          	bne	a3,a5,18081f58 <_memcpy+0x10>
	return dest;
}
    18081f68:	8082                	ret

0000000018081f6a <sys_memcpy_32>:
RETURN VALUE:
===========================================================================*/
void sys_memcpy_32(void *p_des,const void * p_src,unsigned long size)
{
	unsigned long i;
	for (i=0;i<size;i++)
    18081f6a:	ca11                	beqz	a2,18081f7e <sys_memcpy_32+0x14>
    18081f6c:	060e                	slli	a2,a2,0x3
    18081f6e:	962e                	add	a2,a2,a1
		*((unsigned long*)p_des+i) = *((unsigned long*)p_src+i);
    18081f70:	619c                	ld	a5,0(a1)
    18081f72:	0521                	addi	a0,a0,8
    18081f74:	05a1                	addi	a1,a1,8
    18081f76:	fef53c23          	sd	a5,-8(a0)
	for (i=0;i<size;i++)
    18081f7a:	fec59be3          	bne	a1,a2,18081f70 <sys_memcpy_32+0x6>
}
    18081f7e:	8082                	ret

0000000018081f80 <sys_memset>:
RETURN VALUE:
===========================================================================*/
void sys_memset(void *p_des,unsigned char c,unsigned long size)
{
	unsigned long i;
	for (i=0;i<size;i++)
    18081f80:	c619                	beqz	a2,18081f8e <sys_memset+0xe>
    18081f82:	962a                	add	a2,a2,a0
		*((char*)p_des+i) = c;
    18081f84:	00b50023          	sb	a1,0(a0)
    18081f88:	0505                	addi	a0,a0,1
	for (i=0;i<size;i++)
    18081f8a:	fec51de3          	bne	a0,a2,18081f84 <sys_memset+0x4>
}
    18081f8e:	8082                	ret

0000000018081f90 <sys_memset32>:
RETURN VALUE:
===========================================================================*/
void sys_memset32(void *p_des,int c,unsigned long size)
{
	unsigned long i;
	for(i=0; i< size; i++)
    18081f90:	00361793          	slli	a5,a2,0x3
    18081f94:	97aa                	add	a5,a5,a0
    18081f96:	c609                	beqz	a2,18081fa0 <sys_memset32+0x10>
		((unsigned long*)p_des)[i] = c;
    18081f98:	e10c                	sd	a1,0(a0)
    18081f9a:	0521                	addi	a0,a0,8
	for(i=0; i< size; i++)
    18081f9c:	fef51ee3          	bne	a0,a5,18081f98 <sys_memset32+0x8>
}
    18081fa0:	8082                	ret

0000000018081fa2 <gpio_enable>:
{
	return readl((volatile void *)(base + addr));
}
void gpio_enable(int enable)
{
    if(enable == 0)
    18081fa2:	e511                	bnez	a0,18081fae <gpio_enable+0xc>
    18081fa4:	4781                	li	a5,0
    18081fa6:	11910737          	lui	a4,0x11910
    18081faa:	c31c                	sw	a5,0(a4)
    18081fac:	8082                	ret
    18081fae:	4785                	li	a5,1
    18081fb0:	11910737          	lui	a4,0x11910
    18081fb4:	c31c                	sw	a5,0(a4)
        gpio_write_reg(EZGPIO_FULLMUX_BASE_ADDR, GPIO_EN, 0);
    else 
        gpio_write_reg(EZGPIO_FULLMUX_BASE_ADDR, GPIO_EN, 1);
}
    18081fb6:	8082                	ret

0000000018081fb8 <gpio_get_val>:
int gpio_get_val(int gpio_num)
{
    int value = 0;
    if(gpio_num < 32)
    18081fb8:	47fd                	li	a5,31
    18081fba:	00a7cb63          	blt	a5,a0,18081fd0 <gpio_get_val+0x18>
	asm volatile("lw %0, 0(%1)" : "=r" (val) : "r" (addr));
    18081fbe:	11910737          	lui	a4,0x11910
    18081fc2:	04870713          	addi	a4,a4,72 # 11910048 <__stack_size+0x1190f848>
    18081fc6:	4318                	lw	a4,0(a4)
    {
        value = gpio_read_reg(EZGPIO_FULLMUX_BASE_ADDR, GPIO_DIN_LOW);
        return (value >> gpio_num) & 0x1;
    18081fc8:	40a7553b          	sraw	a0,a4,a0
    18081fcc:	8905                	andi	a0,a0,1
    18081fce:	8082                	ret
    18081fd0:	119107b7          	lui	a5,0x11910
    18081fd4:	04c78793          	addi	a5,a5,76 # 1191004c <__stack_size+0x1190f84c>
    18081fd8:	439c                	lw	a5,0(a5)
    }
    else
    {
        value = gpio_read_reg(EZGPIO_FULLMUX_BASE_ADDR, GPIO_DIN_HIGH);
        return (value >> (gpio_num - 32)) & 0x1;
    18081fda:	3501                	addiw	a0,a0,-32
    18081fdc:	40a7d53b          	sraw	a0,a5,a0
    18081fe0:	8905                	andi	a0,a0,1
    }
}
    18081fe2:	8082                	ret

0000000018081fe4 <get_boot_mode>:
    18081fe4:	119107b7          	lui	a5,0x11910
    18081fe8:	04c78793          	addi	a5,a5,76 # 1191004c <__stack_size+0x1190f84c>
    18081fec:	4394                	lw	a3,0(a5)
    18081fee:	4398                	lw	a4,0(a5)
    18081ff0:	4388                	lw	a0,0(a5)
        return (value >> (gpio_num - 32)) & 0x1;
    18081ff2:	41d7579b          	sraiw	a5,a4,0x1d
    18081ff6:	41e5551b          	sraiw	a0,a0,0x1e

int get_boot_mode()
{
    int boot_mode = 0;
    boot_mode = gpio_get_val(BOOT_GPIO_60);
    boot_mode |= (gpio_get_val(BOOT_GPIO_61) << 1);
    18081ffa:	0017979b          	slliw	a5,a5,0x1
    boot_mode |= (gpio_get_val(BOOT_GPIO_62) << 2);
    18081ffe:	0025151b          	slliw	a0,a0,0x2
    boot_mode |= (gpio_get_val(BOOT_GPIO_61) << 1);
    18082002:	8b89                	andi	a5,a5,2
        return (value >> (gpio_num - 32)) & 0x1;
    18082004:	41c6d71b          	sraiw	a4,a3,0x1c
    boot_mode |= (gpio_get_val(BOOT_GPIO_62) << 2);
    18082008:	8911                	andi	a0,a0,4
    1808200a:	8d5d                	or	a0,a0,a5
        return (value >> (gpio_num - 32)) & 0x1;
    1808200c:	8b05                	andi	a4,a4,1

    return boot_mode;
    
}
    1808200e:	8d59                	or	a0,a0,a4
    18082010:	8082                	ret

0000000018082012 <gpio_init>:
void gpio_init(void)
{
    _ENABLE_CLOCK_clk_gpio_apb_;
    18082012:	11800737          	lui	a4,0x11800
    18082016:	27872783          	lw	a5,632(a4) # 11800278 <__stack_size+0x117ffa78>
    1808201a:	80000637          	lui	a2,0x80000
    _ASSERT_RESET_rstgen_rstn_gpio_apb_;
    1808201e:	118406b7          	lui	a3,0x11840
    _ENABLE_CLOCK_clk_gpio_apb_;
    18082022:	8fd1                	or	a5,a5,a2
    18082024:	26f72c23          	sw	a5,632(a4)
    _ASSERT_RESET_rstgen_rstn_gpio_apb_;
    18082028:	469c                	lw	a5,8(a3)
    1808202a:	ffc00737          	lui	a4,0xffc00
    1808202e:	177d                	addi	a4,a4,-1
    18082030:	2781                	sext.w	a5,a5
    18082032:	8ff9                	and	a5,a5,a4
    18082034:	00400737          	lui	a4,0x400
    18082038:	8fd9                	or	a5,a5,a4
    1808203a:	c69c                	sw	a5,8(a3)
    1808203c:	11840737          	lui	a4,0x11840
    18082040:	004006b7          	lui	a3,0x400
    18082044:	4f1c                	lw	a5,24(a4)
    18082046:	2781                	sext.w	a5,a5
    18082048:	8ff5                	and	a5,a5,a3
    1808204a:	ffed                	bnez	a5,18082044 <gpio_init+0x32>
    _CLEAR_RESET_rstgen_rstn_gpio_apb_;
    1808204c:	471c                	lw	a5,8(a4)
    1808204e:	ffc006b7          	lui	a3,0xffc00
    18082052:	16fd                	addi	a3,a3,-1
    18082054:	2781                	sext.w	a5,a5
    18082056:	8ff5                	and	a5,a5,a3
    18082058:	c71c                	sw	a5,8(a4)
    1808205a:	118406b7          	lui	a3,0x11840
    1808205e:	00400737          	lui	a4,0x400
    18082062:	4e9c                	lw	a5,24(a3)
    18082064:	2781                	sext.w	a5,a5
    18082066:	8ff9                	and	a5,a5,a4
    18082068:	dfed                	beqz	a5,18082062 <gpio_init+0x50>
	asm volatile("sw %0, 0(%1)" : : "r" (val), "r" (addr));
    1808206a:	4785                	li	a5,1
    1808206c:	11910737          	lui	a4,0x11910
    18082070:	c31c                	sw	a5,0(a4)
    gpio_enable(1);
}
    18082072:	8082                	ret

0000000018082074 <spi_register>:
#define SPI_CONTROLLER_NUM	1
struct spi_operation *operations[SPI_CONTROLLER_NUM];

int spi_register(unsigned int bus, struct spi_operation *operation)
{
	if(bus> SPI_CONTROLLER_NUM-1)
    18082074:	e511                	bnez	a0,18082080 <spi_register+0xc>
		return -1;

	operations[bus] = operation;
    18082076:	00010797          	auipc	a5,0x10
    1808207a:	68b7b123          	sd	a1,1666(a5) # 180926f8 <operations>

	return 0;
    1808207e:	8082                	ret
		return -1;
    18082080:	557d                	li	a0,-1
}
    18082082:	8082                	ret

0000000018082084 <spi_unregister>:

int spi_unregister(unsigned int bus)
{
	if(bus> SPI_CONTROLLER_NUM-1)
    18082084:	e511                	bnez	a0,18082090 <spi_unregister+0xc>
		return -1;

	operations[bus] = 0;
    18082086:	00010797          	auipc	a5,0x10
    1808208a:	6607b923          	sd	zero,1650(a5) # 180926f8 <operations>

	return 0;
    1808208e:	8082                	ret
		return -1;
    18082090:	557d                	li	a0,-1
}
    18082092:	8082                	ret

0000000018082094 <spi_setup_slave>:

struct spi_slave *spi_setup_slave(unsigned int bus, unsigned int cs,
		unsigned int max_hz, unsigned int mode, unsigned int bus_width)
{
	if(bus> SPI_CONTROLLER_NUM-1)
    18082094:	e919                	bnez	a0,180820aa <spi_setup_slave+0x16>
		return NULL;

	if(operations[bus]->setup_slave)
    18082096:	00010797          	auipc	a5,0x10
    1808209a:	66278793          	addi	a5,a5,1634 # 180926f8 <operations>
    1808209e:	639c                	ld	a5,0(a5)
    180820a0:	0007b303          	ld	t1,0(a5)
    180820a4:	00030363          	beqz	t1,180820aa <spi_setup_slave+0x16>
	{
		return operations[bus]->setup_slave(bus,cs,max_hz,mode,bus_width);
    180820a8:	8302                	jr	t1
	}
	return NULL;
}
    180820aa:	4501                	li	a0,0
    180820ac:	8082                	ret

00000000180820ae <spi_xfer>:
		void *din, unsigned long flags,int bit_mode)
{
	unsigned int bus = slave->bus;
	int ret = -1;

	if(bus> SPI_CONTROLLER_NUM-1)
    180820ae:	00052803          	lw	a6,0(a0)
    180820b2:	00081d63          	bnez	a6,180820cc <spi_xfer+0x1e>
		return -1;

	if(operations[bus]->spi_xfer)
    180820b6:	00010817          	auipc	a6,0x10
    180820ba:	64280813          	addi	a6,a6,1602 # 180926f8 <operations>
    180820be:	00083803          	ld	a6,0(a6)
    180820c2:	00883303          	ld	t1,8(a6)
    180820c6:	00030363          	beqz	t1,180820cc <spi_xfer+0x1e>
		ret = operations[bus]->spi_xfer(slave, bitlen, dout, din, flags, bit_mode);
    180820ca:	8302                	jr	t1

	return ret;
}
    180820cc:	557d                	li	a0,-1
    180820ce:	8082                	ret

00000000180820d0 <spi_flash_probe_nor>:
	struct spi_flash_params *params;
	struct spi_flash *flash;
	u32 id = 0;
	static int i = 0;

	id = ((idcode[2] << 16) | (idcode[1] << 8) | idcode[0]);
    180820d0:	0025c703          	lbu	a4,2(a1)
    180820d4:	0015c683          	lbu	a3,1(a1)
    180820d8:	0005c603          	lbu	a2,0(a1)
    180820dc:	0107179b          	slliw	a5,a4,0x10
    180820e0:	0086969b          	slliw	a3,a3,0x8
    180820e4:	8fd5                	or	a5,a5,a3
    180820e6:	8fd1                	or	a5,a5,a2
    180820e8:	0007871b          	sext.w	a4,a5
    if(id == 0x0)
    180820ec:	c7f9                	beqz	a5,180821ba <spi_flash_probe_nor+0xea>
    {
        return NULL;
    }
	params = spi_flash_table;
	for (i = 0; spi_flash_table[i].name != NULL; i++)
    180820ee:	00010797          	auipc	a5,0x10
    180820f2:	5807a923          	sw	zero,1426(a5) # 18092680 <i.1818>
	{
		if ((spi_flash_table[i].id & 0xFFFFFF) == id)
    180820f6:	002007b7          	lui	a5,0x200
    180820fa:	20178793          	addi	a5,a5,513 # 200201 <__stack_size+0x1ffa01>
    180820fe:	0cf70063          	beq	a4,a5,180821be <spi_flash_probe_nor+0xee>
    18082102:	001967b7          	lui	a5,0x196
    18082106:	0c878793          	addi	a5,a5,200 # 1960c8 <__stack_size+0x1958c8>
    1808210a:	08f70d63          	beq	a4,a5,180821a4 <spi_flash_probe_nor+0xd4>
    1808210e:	4789                	li	a5,2
    18082110:	00010717          	auipc	a4,0x10
    18082114:	56f72823          	sw	a5,1392(a4) # 18092680 <i.1818>
	for (i = 0; spi_flash_table[i].name != NULL; i++)
    18082118:	4609                	li	a2,2
		if ((spi_flash_table[i].id & 0xFFFFFF) == id)
    1808211a:	4681                	li	a3,0
		{
			break;
		}
	}

	flash = &g_spi_flash[spi->bus];
    1808211c:	00056703          	lwu	a4,0(a0)
    18082120:	00010797          	auipc	a5,0x10
    18082124:	58878793          	addi	a5,a5,1416 # 180926a8 <g_spi_flash>
    18082128:	00371513          	slli	a0,a4,0x3
    1808212c:	8d19                	sub	a0,a0,a4
    1808212e:	050e                	slli	a0,a0,0x3
    18082130:	953e                	add	a0,a0,a5
	{
		//uart_printf("SF: Failed to allocate memory\r\n");
		return NULL;
	}

	flash->name = spi_flash_table[i].name;
    18082132:	e514                	sd	a3,8(a0)
	{
		/* Assuming power-of-two page size initially. */
		flash->write = spi_flash_cmd_write_mode;
		flash->erase = spi_flash_erase_mode;
		flash->read = spi_flash_read_mode;
		flash->page_size = 1 << spi_flash_table[i].l2_page_size;
    18082134:	00161693          	slli	a3,a2,0x1
    18082138:	96b2                	add	a3,a3,a2
    1808213a:	00369613          	slli	a2,a3,0x3
    1808213e:	00010697          	auipc	a3,0x10
    18082142:	13268693          	addi	a3,a3,306 # 18092270 <spi_flash_table>
    18082146:	96b2                	add	a3,a3,a2
    18082148:	00c6c883          	lbu	a7,12(a3)
		flash->sector_size = flash->page_size * spi_flash_table[i].pages_per_sector;
    1808214c:	00e6d583          	lhu	a1,14(a3)
		flash->block_size = flash->sector_size * spi_flash_table[i].sectors_per_block;
    18082150:	0106d603          	lhu	a2,16(a3)
		flash->size = flash->page_size * spi_flash_table[i].pages_per_sector
						* spi_flash_table[i].sectors_per_block
						* spi_flash_table[i].nr_blocks;
    18082154:	0126d803          	lhu	a6,18(a3)
		flash->sector_size = flash->page_size * spi_flash_table[i].pages_per_sector;
    18082158:	011595bb          	sllw	a1,a1,a7
		flash->block_size = flash->sector_size * spi_flash_table[i].sectors_per_block;
    1808215c:	02b6063b          	mulw	a2,a2,a1
		flash->write = spi_flash_cmd_write_mode;
    18082160:	00371693          	slli	a3,a4,0x3
    18082164:	40e68733          	sub	a4,a3,a4
    18082168:	070e                	slli	a4,a4,0x3
    1808216a:	97ba                	add	a5,a5,a4
		flash->page_size = 1 << spi_flash_table[i].l2_page_size;
    1808216c:	4685                	li	a3,1
    1808216e:	011696bb          	sllw	a3,a3,a7
    18082172:	cbd4                	sw	a3,20(a5)
		flash->sector_size = flash->page_size * spi_flash_table[i].pages_per_sector;
    18082174:	cf8c                	sw	a1,24(a5)
						* spi_flash_table[i].nr_blocks;
    18082176:	02c8073b          	mulw	a4,a6,a2
		flash->write = spi_flash_cmd_write_mode;
    1808217a:	00001817          	auipc	a6,0x1
    1808217e:	a7c80813          	addi	a6,a6,-1412 # 18082bf6 <spi_flash_cmd_write_mode>
    18082182:	0307b423          	sd	a6,40(a5)
		flash->erase = spi_flash_erase_mode;
    18082186:	00001817          	auipc	a6,0x1
    1808218a:	a3c80813          	addi	a6,a6,-1476 # 18082bc2 <spi_flash_erase_mode>
    1808218e:	0307b823          	sd	a6,48(a5)
		flash->read = spi_flash_read_mode;
    18082192:	00001817          	auipc	a6,0x1
    18082196:	c6e80813          	addi	a6,a6,-914 # 18082e00 <spi_flash_read_mode>
    1808219a:	0307b023          	sd	a6,32(a5)
		flash->block_size = flash->sector_size * spi_flash_table[i].sectors_per_block;
    1808219e:	cfd0                	sw	a2,28(a5)
		flash->size = flash->page_size * spi_flash_table[i].pages_per_sector
    180821a0:	cb98                	sw	a4,16(a5)
    180821a2:	8082                	ret
    180821a4:	4785                	li	a5,1
    180821a6:	00010717          	auipc	a4,0x10
    180821aa:	4cf72d23          	sw	a5,1242(a4) # 18092680 <i.1818>
	for (i = 0; spi_flash_table[i].name != NULL; i++)
    180821ae:	4605                	li	a2,1
		if ((spi_flash_table[i].id & 0xFFFFFF) == id)
    180821b0:	00010697          	auipc	a3,0x10
    180821b4:	0f068693          	addi	a3,a3,240 # 180922a0 <spi_flash_table+0x30>
    180821b8:	b795                	j	1808211c <spi_flash_probe_nor+0x4c>
        return NULL;
    180821ba:	4501                	li	a0,0
	}

	//uart_printf("spi probe complete\r\n");

	return flash;
}
    180821bc:	8082                	ret
	flash = &g_spi_flash[spi->bus];
    180821be:	00056703          	lwu	a4,0(a0)
    180821c2:	00010797          	auipc	a5,0x10
    180821c6:	4e678793          	addi	a5,a5,1254 # 180926a8 <g_spi_flash>
	flash->name = spi_flash_table[i].name;
    180821ca:	00010697          	auipc	a3,0x10
    180821ce:	0e668693          	addi	a3,a3,230 # 180922b0 <spi_flash_table+0x40>
	flash = &g_spi_flash[spi->bus];
    180821d2:	00371513          	slli	a0,a4,0x3
    180821d6:	8d19                	sub	a0,a0,a4
    180821d8:	050e                	slli	a0,a0,0x3
    180821da:	953e                	add	a0,a0,a5
	flash->name = spi_flash_table[i].name;
    180821dc:	e514                	sd	a3,8(a0)
	for (i = 0; spi_flash_table[i].name != NULL; i++)
    180821de:	4601                	li	a2,0
    180821e0:	bf91                	j	18082134 <spi_flash_probe_nor+0x64>

00000000180821e2 <spi_flash_probe>:

static struct spi_flash aic_flash;

struct spi_flash *spi_flash_probe(unsigned int bus, unsigned int cs,
		unsigned int max_hz, unsigned int mode, unsigned int bus_width)
{
    180821e2:	1101                	addi	sp,sp,-32
    180821e4:	ec06                	sd	ra,24(sp)
    180821e6:	e822                	sd	s0,16(sp)
	struct spi_slave *spi;
	struct spi_flash *flash = &aic_flash;
	int ret = 0;
	u8 idcode[IDCODE_LEN];

	spi = spi_setup_slave(bus, cs, max_hz, mode, bus_width);
    180821e8:	eadff0ef          	jal	ra,18082094 <spi_setup_slave>
	if (!spi) {
    180821ec:	c121                	beqz	a0,1808222c <spi_flash_probe+0x4a>
	buf[0] = cmd;
    180821ee:	f9f00813          	li	a6,-97
	unsigned char buf[4] = {0};// = {(u8)cmd, 0x00, 0x00, 0x00};
    180821f2:	c402                	sw	zero,8(sp)
	ret1 = spi_xfer(spi, 1*8, &buf[0], NULL, SPI_XFER_BEGIN, 8);
    180821f4:	47a1                	li	a5,8
    180821f6:	4705                	li	a4,1
    180821f8:	4681                	li	a3,0
    180821fa:	0030                	addi	a2,sp,8
    180821fc:	45a1                	li	a1,8
    180821fe:	842a                	mv	s0,a0
	buf[0] = cmd;
    18082200:	01010423          	sb	a6,8(sp)
	ret1 = spi_xfer(spi, 1*8, &buf[0], NULL, SPI_XFER_BEGIN, 8);
    18082204:	eabff0ef          	jal	ra,180820ae <spi_xfer>
	ret2 = spi_xfer(spi, len*8, NULL, response, SPI_XFER_END, 8);
    18082208:	45e1                	li	a1,24
    1808220a:	47a1                	li	a5,8
    1808220c:	4709                	li	a4,2
    1808220e:	868a                	mv	a3,sp
    18082210:	4601                	li	a2,0
    18082212:	8522                	mv	a0,s0
    18082214:	e9bff0ef          	jal	ra,180820ae <spi_xfer>
		goto err_read_id;
	}

//	print_id(idcode, sizeof(idcode));

	flash = spi_flash_probe_nor(spi,idcode);
    18082218:	858a                	mv	a1,sp
    1808221a:	8522                	mv	a0,s0
    1808221c:	eb5ff0ef          	jal	ra,180820d0 <spi_flash_probe_nor>
	if (!flash)
    18082220:	c111                	beqz	a0,18082224 <spi_flash_probe+0x42>
	{
		goto err_manufacturer_probe;
	}

	flash->spi = spi;
    18082222:	e100                	sd	s0,0(a0)

err_manufacturer_probe:
err_read_id:

	return NULL;
}
    18082224:	60e2                	ld	ra,24(sp)
    18082226:	6442                	ld	s0,16(sp)
    18082228:	6105                	addi	sp,sp,32
    1808222a:	8082                	ret
    1808222c:	60e2                	ld	ra,24(sp)
    1808222e:	6442                	ld	s0,16(sp)
		return NULL;
    18082230:	4501                	li	a0,0
}
    18082232:	6105                	addi	sp,sp,32
    18082234:	8082                	ret

0000000018082236 <cadence_spi_write_speed>:
#define CQSPI_INDIRECT_WRITE	3
#define CADENCE_QSPI_MAX_HZ		QSPI_CLK
#define CONFIG_CQSPI_REF_CLK	QSPI_CLK
#define CONFIG_CQSPI_DECODER	0
static int cadence_spi_write_speed(unsigned int hz)
{
    18082236:	1101                	addi	sp,sp,-32
    18082238:	e04a                	sd	s2,0(sp)
	struct cadence_spi_platdata *plat = &cadence_plat;
	struct cadence_spi_priv *priv = &spi_priv;

	cadence_qspi_apb_config_baudrate_div(priv->regbase,
    1808223a:	00010917          	auipc	s2,0x10
    1808223e:	4de90913          	addi	s2,s2,1246 # 18092718 <spi_priv>
{
    18082242:	e426                	sd	s1,8(sp)
    18082244:	84aa                	mv	s1,a0
	cadence_qspi_apb_config_baudrate_div(priv->regbase,
    18082246:	00093503          	ld	a0,0(s2)
{
    1808224a:	e822                	sd	s0,16(sp)
	cadence_qspi_apb_config_baudrate_div(priv->regbase,
    1808224c:	02faf437          	lui	s0,0x2faf
    18082250:	8626                	mv	a2,s1
    18082252:	08040593          	addi	a1,s0,128 # 2faf080 <__stack_size+0x2fae880>
{
    18082256:	ec06                	sd	ra,24(sp)
	cadence_qspi_apb_config_baudrate_div(priv->regbase,
    18082258:	521000ef          	jal	ra,18082f78 <cadence_qspi_apb_config_baudrate_div>
					     CONFIG_CQSPI_REF_CLK, hz);

	/* Reconfigure delay timing if speed is changed. */
	cadence_qspi_apb_delay(priv->regbase, CONFIG_CQSPI_REF_CLK, hz,
    1808225c:	00010697          	auipc	a3,0x10
    18082260:	51468693          	addi	a3,a3,1300 # 18092770 <cadence_plat>
    18082264:	00093503          	ld	a0,0(s2)
    18082268:	0306a803          	lw	a6,48(a3)
    1808226c:	56dc                	lw	a5,44(a3)
    1808226e:	5698                	lw	a4,40(a3)
    18082270:	52d4                	lw	a3,36(a3)
    18082272:	8626                	mv	a2,s1
    18082274:	08040593          	addi	a1,s0,128
    18082278:	5cb000ef          	jal	ra,18083042 <cadence_qspi_apb_delay>
			       plat->tshsl_ns, plat->tsd2d_ns,
			       plat->tchsh_ns, plat->tslch_ns);

	return 0;
}
    1808227c:	60e2                	ld	ra,24(sp)
    1808227e:	6442                	ld	s0,16(sp)
    18082280:	64a2                	ld	s1,8(sp)
    18082282:	6902                	ld	s2,0(sp)
    18082284:	4501                	li	a0,0
    18082286:	6105                	addi	sp,sp,32
    18082288:	8082                	ret

000000001808228a <cadence_spi4x_setup_slave>:
	return 0;
}

struct spi_slave *cadence_spi4x_setup_slave(unsigned int bus, unsigned int cs,
		unsigned int max_hz, u32 mode, u32 fifo_width)
{
    1808228a:	7159                	addi	sp,sp,-112
	u32 clk_pol;
	u32 clk_pha;

	spi4slave = &vic_spi_slave;
	
	spi4slave->base = (void *)QSPI_BASE_ADDR;
    1808228c:	118608b7          	lui	a7,0x11860
	clk_pol = (mode & SPI_CPOL) ? 1 : 0;
	clk_pha = (mode & SPI_CPHA) ? 1 : 0;


	plat->regbase = (void *)QSPI_BASE_ADDR;
	plat->ahbbase = (void *)QSPI_BASE_AHB_ADDR;
    18082290:	20000e37          	lui	t3,0x20000
{
    18082294:	fc56                	sd	s5,56(sp)
    18082296:	8aba                	mv	s5,a4
	spi4slave->base = (void *)QSPI_BASE_ADDR;
    18082298:	00010717          	auipc	a4,0x10
    1808229c:	47172c23          	sw	a7,1144(a4) # 18092710 <vic_spi_slave+0x10>
	plat->regbase = (void *)QSPI_BASE_ADDR;
    180822a0:	00010717          	auipc	a4,0x10
    180822a4:	4d173c23          	sd	a7,1240(a4) # 18092778 <cadence_plat+0x8>
	plat->ahbbase = (void *)QSPI_BASE_AHB_ADDR;
    180822a8:	00010717          	auipc	a4,0x10
    180822ac:	4dc73c23          	sd	t3,1240(a4) # 18092780 <cadence_plat+0x10>
	plat->max_hz = CADENCE_QSPI_MAX_HZ;


/****default set, may change******/
	plat->tshsl_ns =  200;
	plat->tsd2d_ns =  255;
    180822b0:	4785                	li	a5,1
	plat->tchsh_ns =  2;
	plat->tslch_ns =  20;
	plat->sram_size = 256;

	plat->block_size = 16;
    180822b2:	4865                	li	a6,25
	plat->max_hz = CADENCE_QSPI_MAX_HZ;
    180822b4:	02faf737          	lui	a4,0x2faf
	plat->tsd2d_ns =  255;
    180822b8:	02179313          	slli	t1,a5,0x21
	plat->max_hz = CADENCE_QSPI_MAX_HZ;
    180822bc:	08070713          	addi	a4,a4,128 # 2faf080 <__stack_size+0x2fae880>
	plat->tslch_ns =  20;
    180822c0:	17a2                	slli	a5,a5,0x28
	plat->block_size = 16;
    180822c2:	180e                	slli	a6,a6,0x23
	plat->tslch_ns =  20;
    180822c4:	07d1                	addi	a5,a5,20
	plat->tsd2d_ns =  255;
    180822c6:	0ff30313          	addi	t1,t1,255
	plat->block_size = 16;
    180822ca:	0841                	addi	a6,a6,16
{
    180822cc:	eca6                	sd	s1,88(sp)
    180822ce:	f85a                	sd	s6,48(sp)
    180822d0:	84b6                	mv	s1,a3
    180822d2:	8b2a                	mv	s6,a0
	plat->max_hz = CADENCE_QSPI_MAX_HZ;
    180822d4:	00010697          	auipc	a3,0x10
    180822d8:	48e6ae23          	sw	a4,1180(a3) # 18092770 <cadence_plat>

	priv->regbase = plat->regbase;
	priv->ahbbase = plat->ahbbase;

	/* Disable QSPI */
	cadence_qspi_apb_controller_disable(priv->regbase);
    180822dc:	11860537          	lui	a0,0x11860
	plat->page_size = 256;
    180822e0:	10000713          	li	a4,256
    180822e4:	00010697          	auipc	a3,0x10
    180822e8:	4ae6a423          	sw	a4,1192(a3) # 1809278c <cadence_plat+0x1c>
{
    180822ec:	f486                	sd	ra,104(sp)
	plat->tslch_ns =  20;
    180822ee:	00010717          	auipc	a4,0x10
    180822f2:	4af73923          	sd	a5,1202(a4) # 180927a0 <cadence_plat+0x30>
	plat->block_size = 16;
    180822f6:	00010717          	auipc	a4,0x10
    180822fa:	49073d23          	sd	a6,1178(a4) # 18092790 <cadence_plat+0x20>
	plat->tsd2d_ns =  255;
    180822fe:	00010717          	auipc	a4,0x10
    18082302:	48673d23          	sd	t1,1178(a4) # 18092798 <cadence_plat+0x28>
	priv->regbase = plat->regbase;
    18082306:	00010797          	auipc	a5,0x10
    1808230a:	4117b923          	sd	a7,1042(a5) # 18092718 <spi_priv>
	priv->ahbbase = plat->ahbbase;
    1808230e:	00010797          	auipc	a5,0x10
    18082312:	41c7b923          	sd	t3,1042(a5) # 18092720 <spi_priv+0x8>
{
    18082316:	f0a2                	sd	s0,96(sp)
    18082318:	e8ca                	sd	s2,80(sp)
    1808231a:	e4ce                	sd	s3,72(sp)
    1808231c:	e0d2                	sd	s4,64(sp)
    1808231e:	f45e                	sd	s7,40(sp)
    18082320:	8a2e                	mv	s4,a1
    18082322:	8bb2                	mv	s7,a2
    18082324:	f062                	sd	s8,32(sp)
    18082326:	ec66                	sd	s9,24(sp)
    18082328:	e86a                	sd	s10,16(sp)
	priv->regbase = plat->regbase;
    1808232a:	00010917          	auipc	s2,0x10
    1808232e:	3ee90913          	addi	s2,s2,1006 # 18092718 <spi_priv>
	cadence_qspi_apb_controller_disable(priv->regbase);
    18082332:	403000ef          	jal	ra,18082f34 <cadence_qspi_apb_controller_disable>

	/* Set SPI mode */
	cadence_qspi_apb_set_clk_mode(priv->regbase, clk_pol, clk_pha);
    18082336:	00093503          	ld	a0,0(s2)
	clk_pol = (mode & SPI_CPOL) ? 1 : 0;
    1808233a:	0014d59b          	srliw	a1,s1,0x1
	cadence_qspi_apb_set_clk_mode(priv->regbase, clk_pol, clk_pha);
    1808233e:	0014f613          	andi	a2,s1,1
    18082342:	8985                	andi	a1,a1,1
	plat->regbase = (void *)QSPI_BASE_ADDR;
    18082344:	00010417          	auipc	s0,0x10
    18082348:	42c40413          	addi	s0,s0,1068 # 18092770 <cadence_plat>
	cadence_qspi_apb_set_clk_mode(priv->regbase, clk_pol, clk_pha);
    1808234c:	481000ef          	jal	ra,18082fcc <cadence_qspi_apb_set_clk_mode>
		cadence_qspi_apb_controller_init(plat);
		priv->qspi_is_init = 1;
	}
#endif

	cadence_qspi_apb_controller_init(plat);
    18082350:	8522                	mv	a0,s0
    18082352:	517000ef          	jal	ra,18083068 <cadence_qspi_apb_controller_init>

	if (max_hz > plat->max_hz)
    18082356:	00042983          	lw	s3,0(s0)
    1808235a:	013bf363          	bgeu	s7,s3,18082360 <cadence_spi4x_setup_slave+0xd6>
    1808235e:	89de                	mv	s3,s7

	/*
	 * Calibration required for different current SCLK speed, requested
	 * SCLK speed or chip select
	 */
	if (priv->previous_hz != max_hz ||
    18082360:	04492783          	lw	a5,68(s2)
    18082364:	01379663          	bne	a5,s3,18082370 <cadence_spi4x_setup_slave+0xe6>
    18082368:	03c92783          	lw	a5,60(s2)
    1808236c:	13378363          	beq	a5,s3,18082492 <cadence_spi4x_setup_slave+0x208>
	void * base = priv->regbase;
    18082370:	00093483          	ld	s1,0(s2)
	cadence_spi_write_speed(500000);
    18082374:	0007a537          	lui	a0,0x7a
	u8 opcode_rdid = 0x9F;
    18082378:	f9f00793          	li	a5,-97
	cadence_spi_write_speed(500000);
    1808237c:	12050513          	addi	a0,a0,288 # 7a120 <__stack_size+0x79920>
	u8 opcode_rdid = 0x9F;
    18082380:	00f103a3          	sb	a5,7(sp)
	unsigned int idcode = 0, temp = 0;
    18082384:	c402                	sw	zero,8(sp)
    18082386:	c602                	sw	zero,12(sp)
	cadence_spi_write_speed(500000);
    18082388:	eafff0ef          	jal	ra,18082236 <cadence_spi_write_speed>
	cadence_qspi_apb_readdata_capture(base, 1, 0);
    1808238c:	4601                	li	a2,0
    1808238e:	4585                	li	a1,1
    18082390:	8526                	mv	a0,s1
    18082392:	3af000ef          	jal	ra,18082f40 <cadence_qspi_apb_readdata_capture>
	cadence_qspi_apb_controller_enable(base);
    18082396:	8526                	mv	a0,s1
    18082398:	38f000ef          	jal	ra,18082f26 <cadence_qspi_apb_controller_enable>
	err = cadence_qspi_apb_command_read(base, 1, &opcode_rdid,
    1808239c:	0038                	addi	a4,sp,8
    1808239e:	468d                	li	a3,3
    180823a0:	00710613          	addi	a2,sp,7
    180823a4:	4585                	li	a1,1
    180823a6:	8526                	mv	a0,s1
    180823a8:	531000ef          	jal	ra,180830d8 <cadence_qspi_apb_command_read>
    180823ac:	842a                	mv	s0,a0
	if (err) {
    180823ae:	c105                	beqz	a0,180823ce <cadence_spi4x_setup_slave+0x144>
	    priv->qspi_calibrated_hz != max_hz ||
	    priv->qspi_calibrated_cs != cs) {
		err = spi_calibration(max_hz, cs);
		if (err)
			return NULL;
    180823b0:	4501                	li	a0,0
	spi4slave->slave.bus_width= fifo_width;

	return &spi4slave->slave;

	
}
    180823b2:	70a6                	ld	ra,104(sp)
    180823b4:	7406                	ld	s0,96(sp)
    180823b6:	64e6                	ld	s1,88(sp)
    180823b8:	6946                	ld	s2,80(sp)
    180823ba:	69a6                	ld	s3,72(sp)
    180823bc:	6a06                	ld	s4,64(sp)
    180823be:	7ae2                	ld	s5,56(sp)
    180823c0:	7b42                	ld	s6,48(sp)
    180823c2:	7ba2                	ld	s7,40(sp)
    180823c4:	7c02                	ld	s8,32(sp)
    180823c6:	6ce2                	ld	s9,24(sp)
    180823c8:	6d42                	ld	s10,16(sp)
    180823ca:	6165                	addi	sp,sp,112
    180823cc:	8082                	ret
	cadence_spi_write_speed(hz);
    180823ce:	854e                	mv	a0,s3
    180823d0:	e67ff0ef          	jal	ra,18082236 <cadence_spi_write_speed>
	int err = 0, i, range_lo = -1, range_hi = -1;
    180823d4:	5bfd                	li	s7,-1
    180823d6:	5c7d                	li	s8,-1
		if (range_lo == -1 && temp == idcode) {
    180823d8:	5d7d                	li	s10,-1
	for (i = 0; i < CQSPI_READ_CAPTURE_MAX_DELAY; i++) {
    180823da:	4cc1                	li	s9,16
    180823dc:	a039                	j	180823ea <cadence_spi4x_setup_slave+0x160>
		if (range_lo != -1 && temp != idcode) {
    180823de:	8ba2                	mv	s7,s0
    180823e0:	0af71e63          	bne	a4,a5,1808249c <cadence_spi4x_setup_slave+0x212>
	for (i = 0; i < CQSPI_READ_CAPTURE_MAX_DELAY; i++) {
    180823e4:	2405                	addiw	s0,s0,1
    180823e6:	05940163          	beq	s0,s9,18082428 <cadence_spi4x_setup_slave+0x19e>
		cadence_qspi_apb_controller_disable(base);
    180823ea:	8526                	mv	a0,s1
    180823ec:	349000ef          	jal	ra,18082f34 <cadence_qspi_apb_controller_disable>
		cadence_qspi_apb_readdata_capture(base, 1, i);
    180823f0:	0004061b          	sext.w	a2,s0
    180823f4:	4585                	li	a1,1
    180823f6:	8526                	mv	a0,s1
    180823f8:	349000ef          	jal	ra,18082f40 <cadence_qspi_apb_readdata_capture>
		cadence_qspi_apb_controller_enable(base);
    180823fc:	8526                	mv	a0,s1
    180823fe:	329000ef          	jal	ra,18082f26 <cadence_qspi_apb_controller_enable>
		err = cadence_qspi_apb_command_read(base, 1, &opcode_rdid,
    18082402:	0078                	addi	a4,sp,12
    18082404:	468d                	li	a3,3
    18082406:	00710613          	addi	a2,sp,7
    1808240a:	4585                	li	a1,1
    1808240c:	8526                	mv	a0,s1
    1808240e:	4cb000ef          	jal	ra,180830d8 <cadence_qspi_apb_command_read>
		if (err) {
    18082412:	fd59                	bnez	a0,180823b0 <cadence_spi4x_setup_slave+0x126>
    18082414:	47b2                	lw	a5,12(sp)
    18082416:	4722                	lw	a4,8(sp)
		if (range_lo == -1 && temp == idcode) {
    18082418:	fdac13e3          	bne	s8,s10,180823de <cadence_spi4x_setup_slave+0x154>
    1808241c:	06f70963          	beq	a4,a5,1808248e <cadence_spi4x_setup_slave+0x204>
    18082420:	8ba2                	mv	s7,s0
	for (i = 0; i < CQSPI_READ_CAPTURE_MAX_DELAY; i++) {
    18082422:	2405                	addiw	s0,s0,1
    18082424:	fd9413e3          	bne	s0,s9,180823ea <cadence_spi4x_setup_slave+0x160>
	if (range_lo == -1) {
    18082428:	57fd                	li	a5,-1
    1808242a:	02fc0963          	beq	s8,a5,1808245c <cadence_spi4x_setup_slave+0x1d2>
	cadence_qspi_apb_controller_disable(base);
    1808242e:	8526                	mv	a0,s1
    18082430:	305000ef          	jal	ra,18082f34 <cadence_qspi_apb_controller_disable>
	cadence_qspi_apb_readdata_capture(base, 1, (range_hi + range_lo) / 2);
    18082434:	018b8bbb          	addw	s7,s7,s8
    18082438:	01fbd61b          	srliw	a2,s7,0x1f
    1808243c:	0176063b          	addw	a2,a2,s7
    18082440:	4016561b          	sraiw	a2,a2,0x1
    18082444:	4585                	li	a1,1
    18082446:	8526                	mv	a0,s1
    18082448:	2f9000ef          	jal	ra,18082f40 <cadence_qspi_apb_readdata_capture>
	priv->qspi_calibrated_hz = hz;
    1808244c:	00010797          	auipc	a5,0x10
    18082450:	3137a423          	sw	s3,776(a5) # 18092754 <spi_priv+0x3c>
	priv->qspi_calibrated_cs = cs;
    18082454:	00010797          	auipc	a5,0x10
    18082458:	3147a223          	sw	s4,772(a5) # 18092758 <spi_priv+0x40>
		priv->previous_hz = max_hz;
    1808245c:	00010797          	auipc	a5,0x10
    18082460:	3137a023          	sw	s3,768(a5) # 1809275c <spi_priv+0x44>
	cadence_qspi_apb_controller_enable(priv->regbase);
    18082464:	00093503          	ld	a0,0(s2)
    18082468:	2bf000ef          	jal	ra,18082f26 <cadence_qspi_apb_controller_enable>
	return &spi4slave->slave;
    1808246c:	00010517          	auipc	a0,0x10
    18082470:	29450513          	addi	a0,a0,660 # 18092700 <vic_spi_slave>
	spi4slave->slave.bus = bus;
    18082474:	00010797          	auipc	a5,0x10
    18082478:	2967a623          	sw	s6,652(a5) # 18092700 <vic_spi_slave>
	spi4slave->slave.cs = cs;
    1808247c:	00010797          	auipc	a5,0x10
    18082480:	2947a823          	sw	s4,656(a5) # 1809270c <vic_spi_slave+0xc>
	spi4slave->slave.bus_width= fifo_width;
    18082484:	00010797          	auipc	a5,0x10
    18082488:	2957a023          	sw	s5,640(a5) # 18092704 <vic_spi_slave+0x4>
	return &spi4slave->slave;
    1808248c:	b71d                	j	180823b2 <cadence_spi4x_setup_slave+0x128>
		if (range_lo == -1 && temp == idcode) {
    1808248e:	8c22                	mv	s8,s0
    18082490:	bf91                	j	180823e4 <cadence_spi4x_setup_slave+0x15a>
	    priv->qspi_calibrated_hz != max_hz ||
    18082492:	04092783          	lw	a5,64(s2)
    18082496:	ed479de3          	bne	a5,s4,18082370 <cadence_spi4x_setup_slave+0xe6>
    1808249a:	b7e9                	j	18082464 <cadence_spi4x_setup_slave+0x1da>
			range_hi = i - 1;
    1808249c:	fff40b9b          	addiw	s7,s0,-1
	if (range_lo == -1) {
    180824a0:	b779                	j	1808242e <cadence_spi4x_setup_slave+0x1a4>

00000000180824a2 <cadence_spi_xfer>:


static int cadence_spi_xfer(struct spi_slave *slave, unsigned int bitlen,
			    const void *dout, void *din, unsigned long flags)
{
    180824a2:	715d                	addi	sp,sp,-80
    180824a4:	e0a2                	sd	s0,64(sp)
    180824a6:	fc26                	sd	s1,56(sp)
    180824a8:	f84a                	sd	s2,48(sp)
    180824aa:	f44e                	sd	s3,40(sp)
    180824ac:	f052                	sd	s4,32(sp)
    180824ae:	e85a                	sd	s6,16(sp)
    180824b0:	e45e                	sd	s7,8(sp)
    180824b2:	e062                	sd	s8,0(sp)
	struct cadence_spi_platdata *plat = &cadence_plat;
	struct cadence_spi_priv *priv = &spi_priv;
	void * base = priv->regbase;
    180824b4:	00010917          	auipc	s2,0x10
    180824b8:	26490913          	addi	s2,s2,612 # 18092718 <spi_priv>
{
    180824bc:	e486                	sd	ra,72(sp)
    180824be:	ec56                	sd	s5,24(sp)
	u8 *cmd_buf = priv->cmd_buf;
	unsigned int data_bytes = 0;
	int err = 0;
	u32 mode = CQSPI_STIG_WRITE;

	if (flags & SPI_XFER_BEGIN) {
    180824c0:	00177b13          	andi	s6,a4,1
{
    180824c4:	843a                	mv	s0,a4
    180824c6:	89aa                	mv	s3,a0
    180824c8:	84ae                	mv	s1,a1
    180824ca:	8bb2                	mv	s7,a2
    180824cc:	8c36                	mv	s8,a3
	void * base = priv->regbase;
    180824ce:	00093a03          	ld	s4,0(s2)
	if (flags & SPI_XFER_BEGIN) {
    180824d2:	0a0b1f63          	bnez	s6,18082590 <cadence_spi_xfer+0xee>
		/* copy command to local buffer */
		priv->cmd_len = bitlen / 8;
		sys_memcpy(cmd_buf, dout, priv->cmd_len);
	}

	if (flags == (SPI_XFER_BEGIN | SPI_XFER_END)) 
    180824d6:	478d                	li	a5,3
    180824d8:	00c9a583          	lw	a1,12(s3)
    180824dc:	00247a93          	andi	s5,s0,2
		data_bytes = bitlen / 8;
	}
	//uart_printf("%s: len=%d [bytes]\n", __func__, data_bytes);

	/* Set Chip select */
	cadence_qspi_apb_chipselect(base, slave->cs,
    180824e0:	4601                	li	a2,0
    180824e2:	8552                	mv	a0,s4
	if (flags == (SPI_XFER_BEGIN | SPI_XFER_END)) 
    180824e4:	08f40563          	beq	s0,a5,1808256e <cadence_spi_xfer+0xcc>
		data_bytes = bitlen / 8;
    180824e8:	0034d49b          	srliw	s1,s1,0x3
	cadence_qspi_apb_chipselect(base, slave->cs,
    180824ec:	30d000ef          	jal	ra,18082ff8 <cadence_qspi_apb_chipselect>
				    CONFIG_CQSPI_DECODER);

	if ((flags & SPI_XFER_END) || (flags == 0)) {
    180824f0:	000a9463          	bnez	s5,180824f8 <cadence_spi_xfer+0x56>
	int err = 0;
    180824f4:	4981                	li	s3,0
	if ((flags & SPI_XFER_END) || (flags == 0)) {
    180824f6:	ec39                	bnez	s0,18082554 <cadence_spi_xfer+0xb2>
		if (priv->cmd_len == 0) {
    180824f8:	01092583          	lw	a1,16(s2)
    180824fc:	10058363          	beqz	a1,18082602 <cadence_spi_xfer+0x160>
			//uart_printf("QSPI: Error, command is empty.\n");
			return -1;
		}

		if (din && data_bytes) {
    18082500:	0c0c0263          	beqz	s8,180825c4 <cadence_spi_xfer+0x122>
    18082504:	c0e1                	beqz	s1,180825c4 <cadence_spi_xfer+0x122>
			/* read */
			/* Use STIG if no address. */
			if (!CQSPI_IS_ADDR(priv->cmd_len))
    18082506:	4785                	li	a5,1
    18082508:	0ab7f263          	bgeu	a5,a1,180825ac <cadence_spi_xfer+0x10a>
			err = cadence_qspi_apb_command_write(base,
				priv->cmd_len, cmd_buf,
				data_bytes, dout);
		break;
		case CQSPI_INDIRECT_READ:
			err = cadence_qspi_apb_indirect_read_setup(plat,
    1808250c:	00010617          	auipc	a2,0x10
    18082510:	22060613          	addi	a2,a2,544 # 1809272c <spi_priv+0x14>
    18082514:	00010517          	auipc	a0,0x10
    18082518:	25c50513          	addi	a0,a0,604 # 18092770 <cadence_plat>
    1808251c:	573000ef          	jal	ra,1808328e <cadence_qspi_apb_indirect_read_setup>
    18082520:	89aa                	mv	s3,a0
				priv->cmd_len, cmd_buf);
			if (!err) {
    18082522:	e911                	bnez	a0,18082536 <cadence_spi_xfer+0x94>
				err = cadence_qspi_apb_indirect_read_execute
    18082524:	8662                	mv	a2,s8
    18082526:	85a6                	mv	a1,s1
    18082528:	00010517          	auipc	a0,0x10
    1808252c:	24850513          	addi	a0,a0,584 # 18092770 <cadence_plat>
    18082530:	607000ef          	jal	ra,18083336 <cadence_qspi_apb_indirect_read_execute>
    18082534:	89aa                	mv	s3,a0
		default:
			err = -1;
			break;
		}

		if (flags & SPI_XFER_END) {
    18082536:	000a8f63          	beqz	s5,18082554 <cadence_spi_xfer+0xb2>
			/* clear command buffer */
			sys_memset(cmd_buf, 0, sizeof(priv->cmd_buf));
    1808253a:	02000613          	li	a2,32
    1808253e:	4581                	li	a1,0
    18082540:	00010517          	auipc	a0,0x10
    18082544:	1ec50513          	addi	a0,a0,492 # 1809272c <spi_priv+0x14>
    18082548:	a39ff0ef          	jal	ra,18081f80 <sys_memset>
			priv->cmd_len = 0;
    1808254c:	00010797          	auipc	a5,0x10
    18082550:	1c07ae23          	sw	zero,476(a5) # 18092728 <spi_priv+0x10>
		}
	}

	return err;
}
    18082554:	60a6                	ld	ra,72(sp)
    18082556:	6406                	ld	s0,64(sp)
    18082558:	854e                	mv	a0,s3
    1808255a:	74e2                	ld	s1,56(sp)
    1808255c:	7942                	ld	s2,48(sp)
    1808255e:	79a2                	ld	s3,40(sp)
    18082560:	7a02                	ld	s4,32(sp)
    18082562:	6ae2                	ld	s5,24(sp)
    18082564:	6b42                	ld	s6,16(sp)
    18082566:	6ba2                	ld	s7,8(sp)
    18082568:	6c02                	ld	s8,0(sp)
    1808256a:	6161                	addi	sp,sp,80
    1808256c:	8082                	ret
	cadence_qspi_apb_chipselect(base, slave->cs,
    1808256e:	28b000ef          	jal	ra,18082ff8 <cadence_qspi_apb_chipselect>
		if (priv->cmd_len == 0) {
    18082572:	01092583          	lw	a1,16(s2)
    18082576:	c5d1                	beqz	a1,18082602 <cadence_spi_xfer+0x160>
		data_bytes = 0;
    18082578:	4481                	li	s1,0
			err = cadence_qspi_apb_command_write(base,
    1808257a:	875e                	mv	a4,s7
    1808257c:	86a6                	mv	a3,s1
    1808257e:	00010617          	auipc	a2,0x10
    18082582:	1ae60613          	addi	a2,a2,430 # 1809272c <spi_priv+0x14>
    18082586:	8552                	mv	a0,s4
    18082588:	3fd000ef          	jal	ra,18083184 <cadence_qspi_apb_command_write>
    1808258c:	89aa                	mv	s3,a0
		break;
    1808258e:	b765                	j	18082536 <cadence_spi_xfer+0x94>
		priv->cmd_len = bitlen / 8;
    18082590:	0035d61b          	srliw	a2,a1,0x3
		sys_memcpy(cmd_buf, dout, priv->cmd_len);
    18082594:	00010517          	auipc	a0,0x10
    18082598:	19850513          	addi	a0,a0,408 # 1809272c <spi_priv+0x14>
    1808259c:	85de                	mv	a1,s7
		priv->cmd_len = bitlen / 8;
    1808259e:	00010717          	auipc	a4,0x10
    180825a2:	18c72523          	sw	a2,394(a4) # 18092728 <spi_priv+0x10>
		sys_memcpy(cmd_buf, dout, priv->cmd_len);
    180825a6:	94fff0ef          	jal	ra,18081ef4 <sys_memcpy>
    180825aa:	b735                	j	180824d6 <cadence_spi_xfer+0x34>
			err = cadence_qspi_apb_command_read(
    180825ac:	8762                	mv	a4,s8
    180825ae:	86a6                	mv	a3,s1
    180825b0:	00010617          	auipc	a2,0x10
    180825b4:	17c60613          	addi	a2,a2,380 # 1809272c <spi_priv+0x14>
    180825b8:	4585                	li	a1,1
    180825ba:	8552                	mv	a0,s4
    180825bc:	31d000ef          	jal	ra,180830d8 <cadence_qspi_apb_command_read>
    180825c0:	89aa                	mv	s3,a0
		break;
    180825c2:	bf95                	j	18082536 <cadence_spi_xfer+0x94>
		} else if (dout && !(flags & SPI_XFER_BEGIN)) {
    180825c4:	fa0b8be3          	beqz	s7,1808257a <cadence_spi_xfer+0xd8>
    180825c8:	fa0b19e3          	bnez	s6,1808257a <cadence_spi_xfer+0xd8>
			if (!CQSPI_IS_ADDR(priv->cmd_len))
    180825cc:	4785                	li	a5,1
    180825ce:	00b7e463          	bltu	a5,a1,180825d6 <cadence_spi_xfer+0x134>
    180825d2:	4585                	li	a1,1
    180825d4:	b75d                	j	1808257a <cadence_spi_xfer+0xd8>
			err = cadence_qspi_apb_indirect_write_setup
    180825d6:	00010617          	auipc	a2,0x10
    180825da:	15660613          	addi	a2,a2,342 # 1809272c <spi_priv+0x14>
    180825de:	00010517          	auipc	a0,0x10
    180825e2:	19250513          	addi	a0,a0,402 # 18092770 <cadence_plat>
    180825e6:	6ab000ef          	jal	ra,18083490 <cadence_qspi_apb_indirect_write_setup>
    180825ea:	89aa                	mv	s3,a0
			if (!err) {
    180825ec:	f529                	bnez	a0,18082536 <cadence_spi_xfer+0x94>
				err = cadence_qspi_apb_indirect_write_execute
    180825ee:	865e                	mv	a2,s7
    180825f0:	85a6                	mv	a1,s1
    180825f2:	00010517          	auipc	a0,0x10
    180825f6:	17e50513          	addi	a0,a0,382 # 18092770 <cadence_plat>
    180825fa:	727000ef          	jal	ra,18083520 <cadence_qspi_apb_indirect_write_execute>
    180825fe:	89aa                	mv	s3,a0
    18082600:	bf1d                	j	18082536 <cadence_spi_xfer+0x94>
			return -1;
    18082602:	59fd                	li	s3,-1
    18082604:	bf81                	j	18082554 <cadence_spi_xfer+0xb2>

0000000018082606 <cadence_qspi_init>:
{
	struct spi_operation *func;
    struct cadence_spi_platdata *plat = &cadence_plat;

	/******************* reset ****************/
	_ENABLE_CLOCK_clk_qspi_refclk_;
    18082606:	118006b7          	lui	a3,0x11800
    1808260a:	22c6a703          	lw	a4,556(a3) # 1180022c <__stack_size+0x117ffa2c>
    1808260e:	800007b7          	lui	a5,0x80000
    18082612:	fff7c813          	not	a6,a5
    18082616:	2701                	sext.w	a4,a4
    18082618:	800008b7          	lui	a7,0x80000
    1808261c:	01077733          	and	a4,a4,a6
    18082620:	01176733          	or	a4,a4,a7
    18082624:	2701                	sext.w	a4,a4
    18082626:	22e6a623          	sw	a4,556(a3)
    _ENABLE_CLOCK_clk_qspi_apb_;
    1808262a:	2286a703          	lw	a4,552(a3)
    _ENABLE_CLOCK_clk_qspi_ahb_;
    _ASSERT_RESET_rstgen_rstn_qspi_ahb_;
    1808262e:	11840337          	lui	t1,0x11840
{
    18082632:	862e                	mv	a2,a1
    _ENABLE_CLOCK_clk_qspi_apb_;
    18082634:	2701                	sext.w	a4,a4
    18082636:	01077733          	and	a4,a4,a6
    1808263a:	01176733          	or	a4,a4,a7
    1808263e:	2701                	sext.w	a4,a4
    18082640:	22e6a423          	sw	a4,552(a3)
    _ENABLE_CLOCK_clk_qspi_ahb_;
    18082644:	2246a783          	lw	a5,548(a3)
    _ASSERT_RESET_rstgen_rstn_qspi_ahb_;
    18082648:	11840737          	lui	a4,0x11840
    _ENABLE_CLOCK_clk_qspi_ahb_;
    1808264c:	2781                	sext.w	a5,a5
    1808264e:	0107f7b3          	and	a5,a5,a6
    18082652:	0117e7b3          	or	a5,a5,a7
    18082656:	2781                	sext.w	a5,a5
    18082658:	22f6a223          	sw	a5,548(a3)
    _ASSERT_RESET_rstgen_rstn_qspi_ahb_;
    1808265c:	00832783          	lw	a5,8(t1) # 11840008 <__stack_size+0x1183f808>
    18082660:	2781                	sext.w	a5,a5
    18082662:	0027e793          	ori	a5,a5,2
    18082666:	00f32423          	sw	a5,8(t1)
    1808266a:	4f1c                	lw	a5,24(a4)
    1808266c:	8b89                	andi	a5,a5,2
    1808266e:	fff5                	bnez	a5,1808266a <cadence_qspi_init+0x64>
    _ASSERT_RESET_rstgen_rstn_qspi_core_;
    18082670:	471c                	lw	a5,8(a4)
    18082672:	118406b7          	lui	a3,0x11840
    18082676:	2781                	sext.w	a5,a5
    18082678:	0047e793          	ori	a5,a5,4
    1808267c:	c71c                	sw	a5,8(a4)
    1808267e:	4e9c                	lw	a5,24(a3)
    18082680:	8b91                	andi	a5,a5,4
    18082682:	fff5                	bnez	a5,1808267e <cadence_qspi_init+0x78>
    _ASSERT_RESET_rstgen_rstn_qspi_apb_;
    18082684:	469c                	lw	a5,8(a3)
    18082686:	11840737          	lui	a4,0x11840
    1808268a:	2781                	sext.w	a5,a5
    1808268c:	0087e793          	ori	a5,a5,8
    18082690:	c69c                	sw	a5,8(a3)
    18082692:	4f1c                	lw	a5,24(a4)
    18082694:	8ba1                	andi	a5,a5,8
    18082696:	fff5                	bnez	a5,18082692 <cadence_qspi_init+0x8c>
    _CLEAR_RESET_rstgen_rstn_qspi_ahb_;
    18082698:	471c                	lw	a5,8(a4)
    1808269a:	118406b7          	lui	a3,0x11840
    1808269e:	2781                	sext.w	a5,a5
    180826a0:	9bf5                	andi	a5,a5,-3
    180826a2:	c71c                	sw	a5,8(a4)
    180826a4:	4e9c                	lw	a5,24(a3)
    180826a6:	8b89                	andi	a5,a5,2
    180826a8:	dff5                	beqz	a5,180826a4 <cadence_qspi_init+0x9e>
    _CLEAR_RESET_rstgen_rstn_qspi_core_;
    180826aa:	469c                	lw	a5,8(a3)
    180826ac:	11840737          	lui	a4,0x11840
    180826b0:	2781                	sext.w	a5,a5
    180826b2:	9bed                	andi	a5,a5,-5
    180826b4:	c69c                	sw	a5,8(a3)
    180826b6:	4f1c                	lw	a5,24(a4)
    180826b8:	8b91                	andi	a5,a5,4
    180826ba:	dff5                	beqz	a5,180826b6 <cadence_qspi_init+0xb0>
    _CLEAR_RESET_rstgen_rstn_qspi_apb_;
    180826bc:	471c                	lw	a5,8(a4)
    180826be:	118406b7          	lui	a3,0x11840
    180826c2:	2781                	sext.w	a5,a5
    180826c4:	9bdd                	andi	a5,a5,-9
    180826c6:	c71c                	sw	a5,8(a4)
    180826c8:	4e9c                	lw	a5,24(a3)
    180826ca:	8ba1                	andi	a5,a5,8
    180826cc:	dff5                	beqz	a5,180826c8 <cadence_qspi_init+0xc2>
	plat->bit_mode = mode;
    180826ce:	00010797          	auipc	a5,0x10
    180826d2:	0cc7ad23          	sw	a2,218(a5) # 180927a8 <cadence_plat+0x38>
	
	func = &cadence_spi4x_func;
	func->setup_slave = cadence_spi4x_setup_slave;
    180826d6:	00000797          	auipc	a5,0x0
    180826da:	bb478793          	addi	a5,a5,-1100 # 1808228a <cadence_spi4x_setup_slave>
    180826de:	00010717          	auipc	a4,0x10
    180826e2:	08f73123          	sd	a5,130(a4) # 18092760 <cadence_spi4x_func>
	func->spi_xfer = cadence_spi_xfer;
    180826e6:	00000797          	auipc	a5,0x0
    180826ea:	dbc78793          	addi	a5,a5,-580 # 180824a2 <cadence_spi_xfer>

	spi_register(bus, func);
    180826ee:	00010597          	auipc	a1,0x10
    180826f2:	07258593          	addi	a1,a1,114 # 18092760 <cadence_spi4x_func>
	func->spi_xfer = cadence_spi_xfer;
    180826f6:	00010717          	auipc	a4,0x10
    180826fa:	06f73923          	sd	a5,114(a4) # 18092768 <cadence_spi4x_func+0x8>
	spi_register(bus, func);
    180826fe:	977ff06f          	j	18082074 <spi_register>

0000000018082702 <spi_flash_read_write>:
		u32 data_len)
{
	unsigned long flags = SPI_XFER_BEGIN;
	int ret;

	if (data_len == 0)
    18082702:	0036189b          	slliw	a7,a2,0x3
    18082706:	eb81                	bnez	a5,18082716 <spi_flash_read_write+0x14>
		flags |= SPI_XFER_END;

	ret = spi_xfer(spi, cmd_len * 8, cmd, NULL, flags, SPI_DATAMODE_8);
    18082708:	862e                	mv	a2,a1
    1808270a:	47a1                	li	a5,8
    1808270c:	470d                	li	a4,3
    1808270e:	4681                	li	a3,0
    18082710:	85c6                	mv	a1,a7
    18082712:	99dff06f          	j	180820ae <spi_xfer>
{
    18082716:	7179                	addi	sp,sp,-48
    18082718:	f022                	sd	s0,32(sp)
    1808271a:	e84a                	sd	s2,16(sp)
    1808271c:	e44e                	sd	s3,8(sp)
    1808271e:	8936                	mv	s2,a3
    18082720:	89ba                	mv	s3,a4
    18082722:	862e                	mv	a2,a1
    18082724:	843e                	mv	s0,a5
	ret = spi_xfer(spi, cmd_len * 8, cmd, NULL, flags, SPI_DATAMODE_8);
    18082726:	4705                	li	a4,1
    18082728:	47a1                	li	a5,8
    1808272a:	4681                	li	a3,0
    1808272c:	85c6                	mv	a1,a7
{
    1808272e:	ec26                	sd	s1,24(sp)
    18082730:	f406                	sd	ra,40(sp)
    18082732:	84aa                	mv	s1,a0
	ret = spi_xfer(spi, cmd_len * 8, cmd, NULL, flags, SPI_DATAMODE_8);
    18082734:	97bff0ef          	jal	ra,180820ae <spi_xfer>
	if (ret)
    18082738:	c901                	beqz	a0,18082748 <spi_flash_read_write+0x46>
	{
		ret = spi_xfer(spi, data_len * 8, data_out, data_in, SPI_XFER_END, SPI_DATAMODE_8);
	}

	return ret;
}
    1808273a:	70a2                	ld	ra,40(sp)
    1808273c:	7402                	ld	s0,32(sp)
    1808273e:	64e2                	ld	s1,24(sp)
    18082740:	6942                	ld	s2,16(sp)
    18082742:	69a2                	ld	s3,8(sp)
    18082744:	6145                	addi	sp,sp,48
    18082746:	8082                	ret
		ret = spi_xfer(spi, data_len * 8, data_out, data_in, SPI_XFER_END, SPI_DATAMODE_8);
    18082748:	0034159b          	slliw	a1,s0,0x3
}
    1808274c:	7402                	ld	s0,32(sp)
    1808274e:	70a2                	ld	ra,40(sp)
		ret = spi_xfer(spi, data_len * 8, data_out, data_in, SPI_XFER_END, SPI_DATAMODE_8);
    18082750:	86ce                	mv	a3,s3
    18082752:	864a                	mv	a2,s2
}
    18082754:	69a2                	ld	s3,8(sp)
    18082756:	6942                	ld	s2,16(sp)
		ret = spi_xfer(spi, data_len * 8, data_out, data_in, SPI_XFER_END, SPI_DATAMODE_8);
    18082758:	8526                	mv	a0,s1
}
    1808275a:	64e2                	ld	s1,24(sp)
		ret = spi_xfer(spi, data_len * 8, data_out, data_in, SPI_XFER_END, SPI_DATAMODE_8);
    1808275c:	47a1                	li	a5,8
    1808275e:	4709                	li	a4,2
}
    18082760:	6145                	addi	sp,sp,48
		ret = spi_xfer(spi, data_len * 8, data_out, data_in, SPI_XFER_END, SPI_DATAMODE_8);
    18082762:	94dff06f          	j	180820ae <spi_xfer>

0000000018082766 <spi_flash_cmd>:

int spi_flash_cmd(struct spi_slave *spi, u8 cmd, void *response, u32 len)
{
    18082766:	1101                	addi	sp,sp,-32
    18082768:	00b107a3          	sb	a1,15(sp)
}

int spi_flash_cmd_read(struct spi_slave *spi, u8 *cmd,
		u32 cmd_len, void *data, u32 data_len)
{
	return spi_flash_read_write(spi, cmd, cmd_len, NULL, data, data_len);
    1808276c:	87b6                	mv	a5,a3
    1808276e:	8732                	mv	a4,a2
    18082770:	00f10593          	addi	a1,sp,15
    18082774:	4681                	li	a3,0
    18082776:	4605                	li	a2,1
{
    18082778:	ec06                	sd	ra,24(sp)
	return spi_flash_read_write(spi, cmd, cmd_len, NULL, data, data_len);
    1808277a:	f89ff0ef          	jal	ra,18082702 <spi_flash_read_write>
}
    1808277e:	60e2                	ld	ra,24(sp)
    18082780:	6105                	addi	sp,sp,32
    18082782:	8082                	ret

0000000018082784 <spi_flash_cmd_read>:
	return spi_flash_read_write(spi, cmd, cmd_len, NULL, data, data_len);
    18082784:	87ba                	mv	a5,a4
    18082786:	8736                	mv	a4,a3
    18082788:	4681                	li	a3,0
    1808278a:	bfa5                	j	18082702 <spi_flash_read_write>

000000001808278c <spi_flash_cmd_write>:
}

int spi_flash_cmd_write(struct spi_slave *spi, u8 *cmd, u32 cmd_len,
		void *data, u32 data_len)
{
	return spi_flash_read_write(spi, cmd, cmd_len, data, NULL, data_len);
    1808278c:	87ba                	mv	a5,a4
    1808278e:	4701                	li	a4,0
    18082790:	bf8d                	j	18082702 <spi_flash_read_write>

0000000018082792 <spi_flash_cmd_write_enable>:
	return spi_flash_read_write(spi, cmd, cmd_len, NULL, data, data_len);
    18082792:	6108                	ld	a0,0(a0)
}

int spi_flash_cmd_write_enable(struct spi_flash *flash)
{
    18082794:	1101                	addi	sp,sp,-32
	return spi_flash_read_write(spi, cmd, cmd_len, NULL, data, data_len);
    18082796:	00f10593          	addi	a1,sp,15
    1808279a:	4819                	li	a6,6
    1808279c:	4781                	li	a5,0
    1808279e:	4701                	li	a4,0
    180827a0:	4681                	li	a3,0
    180827a2:	4605                	li	a2,1
{
    180827a4:	ec06                	sd	ra,24(sp)
    180827a6:	010107a3          	sb	a6,15(sp)
	return spi_flash_read_write(spi, cmd, cmd_len, NULL, data, data_len);
    180827aa:	f59ff0ef          	jal	ra,18082702 <spi_flash_read_write>
	return spi_flash_cmd(flash->spi, CMD_WRITE_ENABLE, (void*)NULL, 0);
}
    180827ae:	60e2                	ld	ra,24(sp)
    180827b0:	6105                	addi	sp,sp,32
    180827b2:	8082                	ret

00000000180827b4 <spi_flash_cmd_write_status_enable>:
	return spi_flash_read_write(spi, cmd, cmd_len, NULL, data, data_len);
    180827b4:	6108                	ld	a0,0(a0)

int spi_flash_cmd_write_status_enable(struct spi_flash *flash)
{
    180827b6:	1101                	addi	sp,sp,-32
	return spi_flash_read_write(spi, cmd, cmd_len, NULL, data, data_len);
    180827b8:	00f10593          	addi	a1,sp,15
    180827bc:	05000813          	li	a6,80
    180827c0:	4781                	li	a5,0
    180827c2:	4701                	li	a4,0
    180827c4:	4681                	li	a3,0
    180827c6:	4605                	li	a2,1
{
    180827c8:	ec06                	sd	ra,24(sp)
    180827ca:	010107a3          	sb	a6,15(sp)
	return spi_flash_read_write(spi, cmd, cmd_len, NULL, data, data_len);
    180827ce:	f35ff0ef          	jal	ra,18082702 <spi_flash_read_write>
	return spi_flash_cmd(flash->spi, CMD_STATUS_ENABLE, (void*)NULL, 0);
}
    180827d2:	60e2                	ld	ra,24(sp)
    180827d4:	6105                	addi	sp,sp,32
    180827d6:	8082                	ret

00000000180827d8 <spi_flash_cmd_write_disable>:

int spi_flash_cmd_write_disable(struct spi_slave *spi)
{
    180827d8:	1101                	addi	sp,sp,-32
	return spi_flash_read_write(spi, cmd, cmd_len, NULL, data, data_len);
    180827da:	00f10593          	addi	a1,sp,15
    180827de:	4811                	li	a6,4
    180827e0:	4781                	li	a5,0
    180827e2:	4701                	li	a4,0
    180827e4:	4681                	li	a3,0
    180827e6:	4605                	li	a2,1
{
    180827e8:	ec06                	sd	ra,24(sp)
    180827ea:	010107a3          	sb	a6,15(sp)
	return spi_flash_read_write(spi, cmd, cmd_len, NULL, data, data_len);
    180827ee:	f15ff0ef          	jal	ra,18082702 <spi_flash_read_write>
	return spi_flash_cmd(spi, CMD_WRITE_DISABLE, (void*)NULL, 0);
}
    180827f2:	60e2                	ld	ra,24(sp)
    180827f4:	6105                	addi	sp,sp,32
    180827f6:	8082                	ret

00000000180827f8 <spi_flash_cmd_read_status>:
int spi_flash_cmd_read_status(struct spi_flash *flash, u8 *cmd, u32 cmd_len, u8 *status)
{
    180827f8:	1101                	addi	sp,sp,-32
    180827fa:	e822                	sd	s0,16(sp)
	struct spi_slave *spi = flash->spi;
    180827fc:	6100                	ld	s0,0(a0)
	int ret;

	ret = spi_xfer(spi, 8*cmd_len, cmd, NULL, SPI_XFER_BEGIN, SPI_DATAMODE_8);
    180827fe:	0036151b          	slliw	a0,a2,0x3
{
    18082802:	e426                	sd	s1,8(sp)
	ret = spi_xfer(spi, 8*cmd_len, cmd, NULL, SPI_XFER_BEGIN, SPI_DATAMODE_8);
    18082804:	862e                	mv	a2,a1
{
    18082806:	84b6                	mv	s1,a3
	ret = spi_xfer(spi, 8*cmd_len, cmd, NULL, SPI_XFER_BEGIN, SPI_DATAMODE_8);
    18082808:	85aa                	mv	a1,a0
    1808280a:	47a1                	li	a5,8
    1808280c:	4705                	li	a4,1
    1808280e:	4681                	li	a3,0
    18082810:	8522                	mv	a0,s0
{
    18082812:	ec06                	sd	ra,24(sp)
	ret = spi_xfer(spi, 8*cmd_len, cmd, NULL, SPI_XFER_BEGIN, SPI_DATAMODE_8);
    18082814:	89bff0ef          	jal	ra,180820ae <spi_xfer>
	if (ret) {
    18082818:	c511                	beqz	a0,18082824 <spi_flash_cmd_read_status+0x2c>
	//uart_printf("status = 0x%x\r\n", status[0]);
	if (ret)
		return ret;

	return 0;
}
    1808281a:	60e2                	ld	ra,24(sp)
    1808281c:	6442                	ld	s0,16(sp)
    1808281e:	64a2                	ld	s1,8(sp)
    18082820:	6105                	addi	sp,sp,32
    18082822:	8082                	ret
	ret = spi_xfer(spi, 8*1, NULL, status, SPI_XFER_END, SPI_DATAMODE_8);
    18082824:	8522                	mv	a0,s0
}
    18082826:	6442                	ld	s0,16(sp)
    18082828:	60e2                	ld	ra,24(sp)
	ret = spi_xfer(spi, 8*1, NULL, status, SPI_XFER_END, SPI_DATAMODE_8);
    1808282a:	86a6                	mv	a3,s1
}
    1808282c:	64a2                	ld	s1,8(sp)
	ret = spi_xfer(spi, 8*1, NULL, status, SPI_XFER_END, SPI_DATAMODE_8);
    1808282e:	47a1                	li	a5,8
    18082830:	4709                	li	a4,2
    18082832:	4601                	li	a2,0
    18082834:	45a1                	li	a1,8
}
    18082836:	6105                	addi	sp,sp,32
	ret = spi_xfer(spi, 8*1, NULL, status, SPI_XFER_END, SPI_DATAMODE_8);
    18082838:	877ff06f          	j	180820ae <spi_xfer>

000000001808283c <spi_flash_cmd_poll_bit>:

int spi_flash_cmd_poll_bit(struct spi_flash *flash, unsigned long timeout,
		u8 cmd, u8 poll_bit)
{
    1808283c:	715d                	addi	sp,sp,-80
    1808283e:	e0a2                	sd	s0,64(sp)
    18082840:	fc26                	sd	s1,56(sp)
    18082842:	f84a                	sd	s2,48(sp)
    18082844:	f44e                	sd	s3,40(sp)
    18082846:	e486                	sd	ra,72(sp)
    18082848:	84aa                	mv	s1,a0
    1808284a:	89ae                	mv	s3,a1
    1808284c:	8936                	mv	s2,a3
    1808284e:	00c107a3          	sb	a2,15(sp)
	int ret;
	u8 status;
    u32 status_tmp = 0;
	u32 timebase_1 = 0;
    18082852:	4401                	li	s0,0
    18082854:	a811                	j	18082868 <spi_flash_cmd_poll_bit+0x2c>
	do {
		ret = spi_flash_cmd_read_status(flash, &cmd, 1, &status);
        //uart_printf("cmd = 0x%x, status = 0x%x\r\n", cmd, status);
		if (ret)
			return ret;
		if ((status & poll_bit) == 0)
    18082856:	01f14703          	lbu	a4,31(sp)
			break;
		timebase_1++;//libo
    1808285a:	0007841b          	sext.w	s0,a5
		if ((status & poll_bit) == 0)
    1808285e:	00e977b3          	and	a5,s2,a4
    18082862:	c38d                	beqz	a5,18082884 <spi_flash_cmd_poll_bit+0x48>
	} while (timebase_1 < timeout);
    18082864:	0336f763          	bgeu	a3,s3,18082892 <spi_flash_cmd_poll_bit+0x56>
		ret = spi_flash_cmd_read_status(flash, &cmd, 1, &status);
    18082868:	01f10693          	addi	a3,sp,31
    1808286c:	4605                	li	a2,1
    1808286e:	00f10593          	addi	a1,sp,15
    18082872:	8526                	mv	a0,s1
    18082874:	f85ff0ef          	jal	ra,180827f8 <spi_flash_cmd_read_status>
		timebase_1++;//libo
    18082878:	0014079b          	addiw	a5,s0,1
	} while (timebase_1 < timeout);
    1808287c:	02079693          	slli	a3,a5,0x20
    18082880:	9281                	srli	a3,a3,0x20
		if (ret)
